
my_software.elf:     file format elf32-littlenios2
my_software.elf
architecture: nios2:r1, flags 0x00000112:
EXEC_P, HAS_SYMS, D_PAGED
start address 0x01000020

Program Header:
    LOAD off    0x00001000 vaddr 0x01000000 paddr 0x01000000 align 2**12
         filesz 0x00000020 memsz 0x00000020 flags r-x
    LOAD off    0x00001020 vaddr 0x01000020 paddr 0x01000020 align 2**12
         filesz 0x000064e0 memsz 0x000064e0 flags r-x
    LOAD off    0x00007500 vaddr 0x01006500 paddr 0x010066f8 align 2**12
         filesz 0x000001f8 memsz 0x000001f8 flags rw-
    LOAD off    0x000078f0 vaddr 0x010068f0 paddr 0x010068f0 align 2**12
         filesz 0x00000000 memsz 0x00000010 flags rw-

Sections:
Idx Name          Size      VMA       LMA       File off  Algn
  0 .entry        00000020  01000000  01000000  00001000  2**5
                  CONTENTS, ALLOC, LOAD, READONLY, CODE
  1 .exceptions   00000000  01000020  01000020  000076f8  2**0
                  CONTENTS
  2 .text         00006104  01000020  01000020  00001020  2**2
                  CONTENTS, ALLOC, LOAD, READONLY, CODE
  3 .rodata       000003dc  01006124  01006124  00007124  2**2
                  CONTENTS, ALLOC, LOAD, READONLY, DATA
  4 .rwdata       000001f8  01006500  010066f8  00007500  2**2
                  CONTENTS, ALLOC, LOAD, DATA, SMALL_DATA
  5 .bss          00000010  010068f0  010068f0  000078f0  2**2
                  ALLOC, SMALL_DATA
  6 .sdram_controller 00000000  01006900  01006900  000076f8  2**0
                  CONTENTS
  7 .onchip_memory2_0 00000000  02040000  02040000  000076f8  2**0
                  CONTENTS
  8 .comment      00000023  00000000  00000000  000076f8  2**0
                  CONTENTS, READONLY
  9 .debug_aranges 000005d0  00000000  00000000  00007720  2**3
                  CONTENTS, READONLY, DEBUGGING
 10 .debug_info   000078f0  00000000  00000000  00007cf0  2**0
                  CONTENTS, READONLY, DEBUGGING
 11 .debug_abbrev 00002dd3  00000000  00000000  0000f5e0  2**0
                  CONTENTS, READONLY, DEBUGGING
 12 .debug_line   00003fa5  00000000  00000000  000123b3  2**0
                  CONTENTS, READONLY, DEBUGGING
 13 .debug_frame  00000948  00000000  00000000  00016358  2**2
                  CONTENTS, READONLY, DEBUGGING
 14 .debug_str    00001c3b  00000000  00000000  00016ca0  2**0
                  CONTENTS, READONLY, DEBUGGING
 15 .debug_loc    00008f41  00000000  00000000  000188db  2**0
                  CONTENTS, READONLY, DEBUGGING
 16 .debug_alt_sim_info 00000010  00000000  00000000  0002181c  2**2
                  CONTENTS, READONLY, DEBUGGING
 17 .debug_ranges 00000cf0  00000000  00000000  00021830  2**3
                  CONTENTS, READONLY, DEBUGGING
 18 .thread_model 00000003  00000000  00000000  00023c96  2**0
                  CONTENTS, READONLY
 19 .cpu          00000003  00000000  00000000  00023c99  2**0
                  CONTENTS, READONLY
 20 .qsys         00000001  00000000  00000000  00023c9c  2**0
                  CONTENTS, READONLY
 21 .simulation_enabled 00000001  00000000  00000000  00023c9d  2**0
                  CONTENTS, READONLY
 22 .sysid_hash   00000004  00000000  00000000  00023c9e  2**0
                  CONTENTS, READONLY
 23 .sysid_base   00000004  00000000  00000000  00023ca2  2**0
                  CONTENTS, READONLY
 24 .sysid_time   00000004  00000000  00000000  00023ca6  2**0
                  CONTENTS, READONLY
 25 .stderr_dev   00000009  00000000  00000000  00023caa  2**0
                  CONTENTS, READONLY
 26 .stdin_dev    00000009  00000000  00000000  00023cb3  2**0
                  CONTENTS, READONLY
 27 .stdout_dev   00000009  00000000  00000000  00023cbc  2**0
                  CONTENTS, READONLY
 28 .sopc_system_name 0000000b  00000000  00000000  00023cc5  2**0
                  CONTENTS, READONLY
 29 .quartus_project_dir 00000064  00000000  00000000  00023cd0  2**0
                  CONTENTS, READONLY
 30 .jdi          0000479a  00000000  00000000  00023d34  2**0
                  CONTENTS, READONLY
 31 .sopcinfo     000b30ca  00000000  00000000  000284ce  2**0
                  CONTENTS, READONLY
SYMBOL TABLE:
01000000 l    d  .entry	00000000 .entry
01000020 l    d  .exceptions	00000000 .exceptions
01000020 l    d  .text	00000000 .text
01006124 l    d  .rodata	00000000 .rodata
01006500 l    d  .rwdata	00000000 .rwdata
010068f0 l    d  .bss	00000000 .bss
01006900 l    d  .sdram_controller	00000000 .sdram_controller
02040000 l    d  .onchip_memory2_0	00000000 .onchip_memory2_0
00000000 l    d  .comment	00000000 .comment
00000000 l    d  .debug_aranges	00000000 .debug_aranges
00000000 l    d  .debug_info	00000000 .debug_info
00000000 l    d  .debug_abbrev	00000000 .debug_abbrev
00000000 l    d  .debug_line	00000000 .debug_line
00000000 l    d  .debug_frame	00000000 .debug_frame
00000000 l    d  .debug_str	00000000 .debug_str
00000000 l    d  .debug_loc	00000000 .debug_loc
00000000 l    d  .debug_alt_sim_info	00000000 .debug_alt_sim_info
00000000 l    d  .debug_ranges	00000000 .debug_ranges
00000000 l    df *ABS*	00000000 ../my_software_bsp//obj/HAL/src/crt0.o
01000058 l       .text	00000000 alt_after_alt_main
00000000 l    df *ABS*	00000000 hello_world_small.c
00000000 l    df *ABS*	00000000 s_cos.c
00000000 l    df *ABS*	00000000 e_rem_pio2.c
010062a8 l     O .rodata	00000108 two_over_pi
01006228 l     O .rodata	00000080 npio2_hw
00000000 l    df *ABS*	00000000 k_cos.c
00000000 l    df *ABS*	00000000 k_rem_pio2.c
010063f0 l     O .rodata	00000010 init_jk
010063b0 l     O .rodata	00000040 PIo2
00000000 l    df *ABS*	00000000 k_sin.c
00000000 l    df *ABS*	00000000 s_fabs.c
00000000 l    df *ABS*	00000000 s_floor.c
00000000 l    df *ABS*	00000000 s_scalbn.c
00000000 l    df *ABS*	00000000 s_copysign.c
00000000 l    df *ABS*	00000000 lib2-divmod.c
00000000 l    df *ABS*	00000000 lib2-divtable.c
00000000 l    df *ABS*	00000000 lib2-mul.c
00000000 l    df *ABS*	00000000 addsf3.c
00000000 l    df *ABS*	00000000 mulsf3.c
00000000 l    df *ABS*	00000000 fixsfsi.c
00000000 l    df *ABS*	00000000 adddf3.c
00000000 l    df *ABS*	00000000 eqdf2.c
00000000 l    df *ABS*	00000000 gedf2.c
00000000 l    df *ABS*	00000000 muldf3.c
00000000 l    df *ABS*	00000000 subdf3.c
00000000 l    df *ABS*	00000000 fixdfsi.c
00000000 l    df *ABS*	00000000 floatsidf.c
00000000 l    df *ABS*	00000000 truncdfsf2.c
00000000 l    df *ABS*	00000000 libgcc2.c
00000000 l    df *ABS*	00000000 libgcc2.c
00000000 l    df *ABS*	00000000 memcpy.c
00000000 l    df *ABS*	00000000 printf.c
00000000 l    df *ABS*	00000000 putchar.c
00000000 l    df *ABS*	00000000 vfprintf.c
010057d8 l     F .text	0000006c print_repeat
00000000 l    df *ABS*	00000000 fvwrite_small_dev.c
00000000 l    df *ABS*	00000000 impure.c
01006600 l     O .rwdata	000000e0 impure_data
00000000 l    df *ABS*	00000000 putc.c
00000000 l    df *ABS*	00000000 strlen.c
00000000 l    df *ABS*	00000000 writer.c
00000000 l    df *ABS*	00000000 int_errno.c
00000000 l    df *ABS*	00000000 alt_load.c
00000000 l    df *ABS*	00000000 alt_main.c
00000000 l    df *ABS*	00000000 alt_write.c
00000000 l    df *ABS*	00000000 alt_sys_init.c
00000000 l    df *ABS*	00000000 altera_avalon_jtag_uart_write.c
00000000 l    df *ABS*	00000000 alt_dcache_flush_all.c
00000000 l    df *ABS*	00000000 alt_errno.c
00000000 l    df *ABS*	00000000 alt_icache_flush_all.c
00000000 l    df *ABS*	00000000 altera_nios2_gen2_irq.c
010057bc g     F .text	0000001c putchar
01006030 g     F .text	0000002c alt_main
01002928 g     F .text	00000014 fabs
010066f8 g       *ABS*	00000000 __flash_rwdata_start
010040d0 g     F .text	00000088 .hidden __eqdf2
01005768 g     F .text	0000004c printf
010037b4 g     F .text	00000070 .hidden __fixsfsi
010066e0 g     O .rwdata	00000004 n
01004158 g     F .text	000000dc .hidden __gtdf2
010066f0 g     O .rwdata	00000004 jtag_uart
0100611c g     F .text	00000008 altera_nios2_gen2_irq_init
01000000 g     F .entry	0000000c __reset
01000020 g       *ABS*	00000000 __flash_exceptions_start
010068f0 g     O .bss	00000004 errno
0100293c g     F .text	000001ec floor
01000000 g       *ABS*	00000000 __alt_mem_sdram_controller
010068f8 g     O .bss	00000004 alt_argv
0100e6e0 g       *ABS*	00000000 _gp
01000cb4 g     F .text	0000076c __ieee754_rem_pio2
010057b4 g     F .text	00000008 _putchar_r
01005704 g     F .text	00000028 memcpy
0100541c g     F .text	000000dc .hidden __floatsidf
0100572c g     F .text	0000003c _printf_r
02040000 g       *ABS*	00000000 __alt_mem_onchip_memory2_0
01002dd8 g     F .text	00000064 .hidden __udivsi3
01001420 g     F .text	000004a4 __kernel_cos
0100265c g     F .text	000002cc __kernel_sin
01003824 g     F .text	000008ac .hidden __adddf3
010066e8 g     O .rwdata	00000004 _global_impure_ptr
01006900 g       *ABS*	00000000 __bss_end
0100005c g     F .text	00000894 dctTransform
010018c4 g     F .text	00000d98 __kernel_rem_pio2
01006114 g     F .text	00000004 alt_dcache_flush_all
0100539c g     F .text	00000080 .hidden __fixdfsi
010066f8 g       *ABS*	00000000 __ram_rwdata_end
0100605c g     F .text	00000060 write
01005e98 g     F .text	00000058 _putc_r
01006500 g       *ABS*	00000000 __ram_rodata_end
01002e3c g     F .text	00000058 .hidden __umodsi3
01006900 g       *ABS*	00000000 end
02000000 g       *ABS*	00000000 __alt_stack_pointer
010056a0 g     F .text	00000064 .hidden __clzsi2
010060e0 g     F .text	00000034 altera_avalon_jtag_uart_write
01000bc8 g     F .text	000000ec cos
01005844 g     F .text	0000052c ___vfprintf_internal_r
01000020 g     F .text	0000003c _start
010060dc g     F .text	00000004 alt_sys_init
01002e94 g     F .text	00000028 .hidden __mulsi3
01006500 g       *ABS*	00000000 __ram_rwdata_start
01006124 g       *ABS*	00000000 __ram_rodata_start
01006900 g       *ABS*	00000000 __alt_stack_base
01004234 g     F .text	0000086c .hidden __muldf3
01005d8c g     F .text	000000b8 __sfvwrite_small_dev
01006500 g     O .rwdata	00000100 .hidden __divsi3_table
010068f0 g       *ABS*	00000000 __bss_start
010008f0 g     F .text	000002d8 main
010068f4 g     O .bss	00000004 alt_envp
010054f8 g     F .text	000001a8 .hidden __truncdfsf2
010066f4 g     O .rwdata	00000004 alt_errno
01005e44 g     F .text	00000054 putc
01002ce0 g     F .text	00000084 .hidden __divsi3
01003384 g     F .text	00000430 .hidden __mulsf3
01006124 g       *ABS*	00000000 __flash_rodata_start
01002cc4 g     F .text	0000001c copysign
010040d0 g     F .text	00000088 .hidden __nedf2
010060bc g     F .text	00000020 alt_irq_init
01006400 g     O .rodata	00000100 .hidden __clz_tab
01005f0c g     F .text	00000058 _write_r
010066ec g     O .rwdata	00000004 _impure_ptr
010068fc g     O .bss	00000004 alt_argc
01002b28 g     F .text	0000019c scalbn
01000020 g       *ABS*	00000000 __ram_exceptions_start
010066f8 g       *ABS*	00000000 _edata
01006900 g       *ABS*	00000000 _end
01000020 g       *ABS*	00000000 __ram_exceptions_end
01002d64 g     F .text	00000074 .hidden __modsi3
02000000 g       *ABS*	00000000 __alt_data_end
0100000c g       .entry	00000000 _exit
010066e4 g     O .rwdata	00000004 m
01005ef0 g     F .text	0000001c strlen
01004158 g     F .text	000000dc .hidden __gedf2
01006118 g     F .text	00000004 alt_icache_flush_all
01005d70 g     F .text	0000001c __vfprintf_internal
01004aa0 g     F .text	000008fc .hidden __subdf3
01002ebc g     F .text	000004c8 .hidden __addsf3
01005f64 g     F .text	000000cc alt_load



Disassembly of section .entry:

01000000 <__reset>:
 * Jump to the _start entry point in the .text section if reset code
 * is allowed or if optimizing for RTL simulation.
 */
#if defined(ALT_ALLOW_CODE_AT_RESET) || defined(ALT_SIM_OPTIMIZE)
    /* Jump to the _start entry point in the .text section. */
    movhi r1, %hi(_start)
 1000000:	00404034 	movhi	at,256
    ori r1, r1, %lo(_start)
 1000004:	08400814 	ori	at,at,32
    jmp r1
 1000008:	0800683a 	jmp	at

0100000c <_exit>:
	...

Disassembly of section .text:

01000020 <_start>:

    /*
     * Now that the caches are initialized, set up the stack pointer and global pointer.
     * The values provided by the linker are assumed to be correctly aligned.
     */
    movhi sp, %hi(__alt_stack_pointer)
 1000020:	06c08034 	movhi	sp,512
    ori sp, sp, %lo(__alt_stack_pointer)
 1000024:	dec00014 	ori	sp,sp,0
    movhi gp, %hi(_gp)
 1000028:	06804034 	movhi	gp,256
    ori gp, gp, %lo(_gp)
 100002c:	d6b9b814 	ori	gp,gp,59104
 */
#ifndef ALT_SIM_OPTIMIZE
    /* Log that the BSS is about to be cleared. */
    ALT_LOG_PUTS(alt_log_msg_bss)

    movhi r2, %hi(__bss_start)
 1000030:	00804034 	movhi	r2,256
    ori r2, r2, %lo(__bss_start)
 1000034:	109a3c14 	ori	r2,r2,26864

    movhi r3, %hi(__bss_end)
 1000038:	00c04034 	movhi	r3,256
    ori r3, r3, %lo(__bss_end)
 100003c:	18da4014 	ori	r3,r3,26880

    beq r2, r3, 1f
 1000040:	10c00326 	beq	r2,r3,1000050 <_start+0x30>

0:
    stw zero, (r2)
 1000044:	10000015 	stw	zero,0(r2)
    addi r2, r2, 4
 1000048:	10800104 	addi	r2,r2,4
    bltu r2, r3, 0b
 100004c:	10fffd36 	bltu	r2,r3,1000044 <_start+0x24>
     * section aren't defined until alt_load() has been called).
     */
    mov   et, zero
#endif

    call alt_load
 1000050:	1005f640 	call	1005f64 <alt_load>

    /* Log that alt_main is about to be called. */
    ALT_LOG_PUTS(alt_log_msg_alt_main)

    /* Call the C entry point. It should never return. */
    call alt_main
 1000054:	10060300 	call	1006030 <alt_main>

01000058 <alt_after_alt_main>:

    /* Wait in infinite loop in case alt_main does return. */
alt_after_alt_main:
    br alt_after_alt_main
 1000058:	003fff06 	br	1000058 <alt_after_alt_main>

0100005c <dctTransform>:
#define pi 3.142857
const int m = 8,
 n = 8;
 // Function to find discrete cosine transform and print it
 int dctTransform(int matrix[m] [n], int Qmatrix[n] [n])
 {
 100005c:	deff9404 	addi	sp,sp,-432
 1000060:	d9005515 	stw	r4,340(sp)
 1000064:	008ffc34 	movhi	r2,16368
 1000068:	d8805715 	stw	r2,348(sp)
 100006c:	d8805517 	ldw	r2,340(sp)
 1000070:	20c00104 	addi	r3,r4,4
  int i, j, k, l;
  int dct[m][n];
  int Qdct[m][n];
  float ci, cj, dct1, sum;
  for (i = 0; i < m; i++) {
 1000074:	d8005d15 	stw	zero,372(sp)
 1000078:	21000204 	addi	r4,r4,8
 100007c:	d9005b15 	stw	r4,364(sp)
 1000080:	d9005d17 	ldw	r4,372(sp)
 1000084:	10800304 	addi	r2,r2,12
#define pi 3.142857
const int m = 8,
 n = 8;
 // Function to find discrete cosine transform and print it
 int dctTransform(int matrix[m] [n], int Qmatrix[n] [n])
 {
 1000088:	dfc06b15 	stw	ra,428(sp)
 100008c:	df006a15 	stw	fp,424(sp)
 1000090:	ddc06915 	stw	r23,420(sp)
 1000094:	dd806815 	stw	r22,416(sp)
 1000098:	dd406715 	stw	r21,412(sp)
 100009c:	dd006615 	stw	r20,408(sp)
 10000a0:	dcc06515 	stw	r19,404(sp)
 10000a4:	dc806415 	stw	r18,400(sp)
 10000a8:	dc406315 	stw	r17,396(sp)
 10000ac:	dc006215 	stw	r16,392(sp)
 10000b0:	d9405e15 	stw	r5,376(sp)
 10000b4:	dec06015 	stw	sp,384(sp)
 10000b8:	dec05f15 	stw	sp,380(sp)
 10000bc:	d8005615 	stw	zero,344(sp)
 10000c0:	d8c05a15 	stw	r3,360(sp)
 10000c4:	d8805c15 	stw	r2,368(sp)
 10000c8:	2001e91e 	bne	r4,zero,1000870 <dctTransform+0x814>
 10000cc:	008f8d74 	movhi	r2,15925
 10000d0:	10813cc4 	addi	r2,r2,1267
 10000d4:	d8805915 	stw	r2,356(sp)
 10000d8:	d8805d17 	ldw	r2,372(sp)
 10000dc:	1001e81e 	bne	r2,zero,1000880 <dctTransform+0x824>
 10000e0:	008f8034 	movhi	r2,15872
 10000e4:	10bfffc4 	addi	r2,r2,-1
 10000e8:	d9005d17 	ldw	r4,372(sp)
 10000ec:	d8806115 	stw	r2,388(sp)
 10000f0:	d8805d17 	ldw	r2,372(sp)
 10000f4:	2109883a 	add	r4,r4,r4
 10000f8:	d9005115 	stw	r4,324(sp)
 10000fc:	2085883a 	add	r2,r4,r2
 1000100:	d9005e17 	ldw	r4,376(sp)
 1000104:	00cffc34 	movhi	r3,16368
 1000108:	d8c04115 	stw	r3,260(sp)
 100010c:	d8805815 	stw	r2,352(sp)
 1000110:	d8c05f17 	ldw	r3,380(sp)
 1000114:	d8804117 	ldw	r2,260(sp)
 1000118:	d9005315 	stw	r4,332(sp)
 100011c:	d9005917 	ldw	r4,356(sp)
 1000120:	d8004015 	stw	zero,256(sp)
 1000124:	d8c05215 	stw	r3,328(sp)
 1000128:	d8005015 	stw	zero,320(sp)
 100012c:	d8004e15 	stw	zero,312(sp)
 1000130:	d8804f15 	stw	r2,316(sp)
 1000134:	d8004c15 	stw	zero,304(sp)
 1000138:	d8804d15 	stw	r2,308(sp)
 100013c:	d8004a15 	stw	zero,296(sp)
 1000140:	d8804b15 	stw	r2,300(sp)
 1000144:	d8004815 	stw	zero,288(sp)
 1000148:	d8804915 	stw	r2,292(sp)
 100014c:	d8004615 	stw	zero,280(sp)
 1000150:	d8804715 	stw	r2,284(sp)
 1000154:	d8004415 	stw	zero,272(sp)
 1000158:	d8804515 	stw	r2,276(sp)
 100015c:	d8004215 	stw	zero,264(sp)
 1000160:	d8804315 	stw	r2,268(sp)
 1000164:	d9005415 	stw	r4,336(sp)
      // number of row and columns of specified matrix
      if (i == 0)
        ci = 1 / sqrt(m);
      else
        ci = sqrt(2) / sqrt(m);
      if (j == 0)
 1000168:	d8804017 	ldw	r2,256(sp)
 100016c:	10019a26 	beq	r2,zero,10007d8 <dctTransform+0x77c>
 1000170:	df005517 	ldw	fp,340(sp)
 1000174:	dd005a17 	ldw	r20,360(sp)
 1000178:	dcc05b17 	ldw	r19,364(sp)
 100017c:	dc805c17 	ldw	r18,368(sp)
 1000180:	dd805817 	ldw	r22,352(sp)
 1000184:	dc405617 	ldw	r17,344(sp)
 1000188:	dc005717 	ldw	r16,348(sp)
        cj = 1 / sqrt(n);
      else
        cj = sqrt(2) / sqrt(n);
      // sum will temporarily store the sum of
      // cosine signals
      sum = 0;
 100018c:	002f883a 	mov	r23,zero
      for (k = 0; k < m; k++) {
 1000190:	002b883a 	mov	r21,zero
 1000194:	00001506 	br	10001ec <dctTransform+0x190>
 1000198:	b009883a 	mov	r4,r22
 100019c:	100541c0 	call	100541c <__floatsidf>
 10001a0:	018d7e34 	movhi	r6,13816
 10001a4:	01d00274 	movhi	r7,16393
 10001a8:	31826444 	addi	r6,r6,2449
 10001ac:	39c92484 	addi	r7,r7,9362
 10001b0:	1009883a 	mov	r4,r2
 10001b4:	180b883a 	mov	r5,r3
 10001b8:	10042340 	call	1004234 <__muldf3>
 10001bc:	000d883a 	mov	r6,zero
 10001c0:	01cfec34 	movhi	r7,16304
 10001c4:	1009883a 	mov	r4,r2
 10001c8:	180b883a 	mov	r5,r3
 10001cc:	10042340 	call	1004234 <__muldf3>
 10001d0:	1009883a 	mov	r4,r2
 10001d4:	180b883a 	mov	r5,r3
 10001d8:	1000bc80 	call	1000bc8 <cos>
 10001dc:	1023883a 	mov	r17,r2
 10001e0:	d8805117 	ldw	r2,324(sp)
 10001e4:	1821883a 	mov	r16,r3
 10001e8:	b0ad883a 	add	r22,r22,r2
        for (l = 0; l < n; l++) {
          matrix[k][l] = matrix[k][l] - 128;
 10001ec:	e1000017 	ldw	r4,0(fp)
 10001f0:	e7000804 	addi	fp,fp,32
 10001f4:	a5000804 	addi	r20,r20,32
 10001f8:	213fe004 	addi	r4,r4,-128
 10001fc:	e13ff815 	stw	r4,-32(fp)
          dct1 = matrix[k][l] *cos((2 * k + 1) * i * pi / (2 * m)) * cos((2 * l + 1) * j * pi / (2 * n));
          sum = sum + dct1;
 1000200:	100541c0 	call	100541c <__floatsidf>
 1000204:	880d883a 	mov	r6,r17
 1000208:	800f883a 	mov	r7,r16
 100020c:	1009883a 	mov	r4,r2
 1000210:	180b883a 	mov	r5,r3
 1000214:	10042340 	call	1004234 <__muldf3>
 1000218:	d9804217 	ldw	r6,264(sp)
 100021c:	d9c04317 	ldw	r7,268(sp)
 1000220:	1009883a 	mov	r4,r2
 1000224:	180b883a 	mov	r5,r3
 1000228:	10042340 	call	1004234 <__muldf3>
 100022c:	180b883a 	mov	r5,r3
 1000230:	1009883a 	mov	r4,r2
 1000234:	10054f80 	call	10054f8 <__truncdfsf2>
 1000238:	b80b883a 	mov	r5,r23
 100023c:	1009883a 	mov	r4,r2
 1000240:	1002ebc0 	call	1002ebc <__addsf3>
      // sum will temporarily store the sum of
      // cosine signals
      sum = 0;
      for (k = 0; k < m; k++) {
        for (l = 0; l < n; l++) {
          matrix[k][l] = matrix[k][l] - 128;
 1000244:	a13ff817 	ldw	r4,-32(r20)
          dct1 = matrix[k][l] *cos((2 * k + 1) * i * pi / (2 * m)) * cos((2 * l + 1) * j * pi / (2 * n));
          sum = sum + dct1;
 1000248:	102f883a 	mov	r23,r2
 100024c:	9cc00804 	addi	r19,r19,32
      // sum will temporarily store the sum of
      // cosine signals
      sum = 0;
      for (k = 0; k < m; k++) {
        for (l = 0; l < n; l++) {
          matrix[k][l] = matrix[k][l] - 128;
 1000250:	213fe004 	addi	r4,r4,-128
 1000254:	a13ff815 	stw	r4,-32(r20)
          dct1 = matrix[k][l] *cos((2 * k + 1) * i * pi / (2 * m)) * cos((2 * l + 1) * j * pi / (2 * n));
          sum = sum + dct1;
 1000258:	100541c0 	call	100541c <__floatsidf>
 100025c:	880d883a 	mov	r6,r17
 1000260:	800f883a 	mov	r7,r16
 1000264:	1009883a 	mov	r4,r2
 1000268:	180b883a 	mov	r5,r3
 100026c:	10042340 	call	1004234 <__muldf3>
 1000270:	d9804417 	ldw	r6,272(sp)
 1000274:	d9c04517 	ldw	r7,276(sp)
 1000278:	1009883a 	mov	r4,r2
 100027c:	180b883a 	mov	r5,r3
 1000280:	10042340 	call	1004234 <__muldf3>
 1000284:	180b883a 	mov	r5,r3
 1000288:	1009883a 	mov	r4,r2
 100028c:	10054f80 	call	10054f8 <__truncdfsf2>
 1000290:	b80b883a 	mov	r5,r23
 1000294:	1009883a 	mov	r4,r2
 1000298:	1002ebc0 	call	1002ebc <__addsf3>
      // sum will temporarily store the sum of
      // cosine signals
      sum = 0;
      for (k = 0; k < m; k++) {
        for (l = 0; l < n; l++) {
          matrix[k][l] = matrix[k][l] - 128;
 100029c:	993ff817 	ldw	r4,-32(r19)
          dct1 = matrix[k][l] *cos((2 * k + 1) * i * pi / (2 * m)) * cos((2 * l + 1) * j * pi / (2 * n));
          sum = sum + dct1;
 10002a0:	102f883a 	mov	r23,r2
 10002a4:	94800804 	addi	r18,r18,32
      // sum will temporarily store the sum of
      // cosine signals
      sum = 0;
      for (k = 0; k < m; k++) {
        for (l = 0; l < n; l++) {
          matrix[k][l] = matrix[k][l] - 128;
 10002a8:	213fe004 	addi	r4,r4,-128
 10002ac:	993ff815 	stw	r4,-32(r19)
          dct1 = matrix[k][l] *cos((2 * k + 1) * i * pi / (2 * m)) * cos((2 * l + 1) * j * pi / (2 * n));
          sum = sum + dct1;
 10002b0:	100541c0 	call	100541c <__floatsidf>
 10002b4:	880d883a 	mov	r6,r17
 10002b8:	800f883a 	mov	r7,r16
 10002bc:	1009883a 	mov	r4,r2
 10002c0:	180b883a 	mov	r5,r3
 10002c4:	10042340 	call	1004234 <__muldf3>
 10002c8:	d9804617 	ldw	r6,280(sp)
 10002cc:	d9c04717 	ldw	r7,284(sp)
 10002d0:	1009883a 	mov	r4,r2
 10002d4:	180b883a 	mov	r5,r3
 10002d8:	10042340 	call	1004234 <__muldf3>
 10002dc:	180b883a 	mov	r5,r3
 10002e0:	1009883a 	mov	r4,r2
 10002e4:	10054f80 	call	10054f8 <__truncdfsf2>
 10002e8:	b80b883a 	mov	r5,r23
 10002ec:	1009883a 	mov	r4,r2
 10002f0:	1002ebc0 	call	1002ebc <__addsf3>
      // sum will temporarily store the sum of
      // cosine signals
      sum = 0;
      for (k = 0; k < m; k++) {
        for (l = 0; l < n; l++) {
          matrix[k][l] = matrix[k][l] - 128;
 10002f4:	913ff817 	ldw	r4,-32(r18)
          dct1 = matrix[k][l] *cos((2 * k + 1) * i * pi / (2 * m)) * cos((2 * l + 1) * j * pi / (2 * n));
          sum = sum + dct1;
 10002f8:	102f883a 	mov	r23,r2
      else
        cj = sqrt(2) / sqrt(n);
      // sum will temporarily store the sum of
      // cosine signals
      sum = 0;
      for (k = 0; k < m; k++) {
 10002fc:	ad400044 	addi	r21,r21,1
        for (l = 0; l < n; l++) {
          matrix[k][l] = matrix[k][l] - 128;
 1000300:	213fe004 	addi	r4,r4,-128
 1000304:	913ff815 	stw	r4,-32(r18)
          dct1 = matrix[k][l] *cos((2 * k + 1) * i * pi / (2 * m)) * cos((2 * l + 1) * j * pi / (2 * n));
          sum = sum + dct1;
 1000308:	100541c0 	call	100541c <__floatsidf>
 100030c:	880d883a 	mov	r6,r17
 1000310:	800f883a 	mov	r7,r16
 1000314:	1009883a 	mov	r4,r2
 1000318:	180b883a 	mov	r5,r3
 100031c:	10042340 	call	1004234 <__muldf3>
 1000320:	d9804817 	ldw	r6,288(sp)
 1000324:	d9c04917 	ldw	r7,292(sp)
 1000328:	1009883a 	mov	r4,r2
 100032c:	180b883a 	mov	r5,r3
 1000330:	10042340 	call	1004234 <__muldf3>
 1000334:	180b883a 	mov	r5,r3
 1000338:	1009883a 	mov	r4,r2
 100033c:	10054f80 	call	10054f8 <__truncdfsf2>
 1000340:	b80b883a 	mov	r5,r23
 1000344:	1009883a 	mov	r4,r2
 1000348:	1002ebc0 	call	1002ebc <__addsf3>
      // sum will temporarily store the sum of
      // cosine signals
      sum = 0;
      for (k = 0; k < m; k++) {
        for (l = 0; l < n; l++) {
          matrix[k][l] = matrix[k][l] - 128;
 100034c:	e13ffc17 	ldw	r4,-16(fp)
          dct1 = matrix[k][l] *cos((2 * k + 1) * i * pi / (2 * m)) * cos((2 * l + 1) * j * pi / (2 * n));
          sum = sum + dct1;
 1000350:	102f883a 	mov	r23,r2
      // sum will temporarily store the sum of
      // cosine signals
      sum = 0;
      for (k = 0; k < m; k++) {
        for (l = 0; l < n; l++) {
          matrix[k][l] = matrix[k][l] - 128;
 1000354:	213fe004 	addi	r4,r4,-128
 1000358:	e13ffc15 	stw	r4,-16(fp)
          dct1 = matrix[k][l] *cos((2 * k + 1) * i * pi / (2 * m)) * cos((2 * l + 1) * j * pi / (2 * n));
          sum = sum + dct1;
 100035c:	100541c0 	call	100541c <__floatsidf>
 1000360:	880d883a 	mov	r6,r17
 1000364:	800f883a 	mov	r7,r16
 1000368:	1009883a 	mov	r4,r2
 100036c:	180b883a 	mov	r5,r3
 1000370:	10042340 	call	1004234 <__muldf3>
 1000374:	d9804a17 	ldw	r6,296(sp)
 1000378:	d9c04b17 	ldw	r7,300(sp)
 100037c:	1009883a 	mov	r4,r2
 1000380:	180b883a 	mov	r5,r3
 1000384:	10042340 	call	1004234 <__muldf3>
 1000388:	180b883a 	mov	r5,r3
 100038c:	1009883a 	mov	r4,r2
 1000390:	10054f80 	call	10054f8 <__truncdfsf2>
 1000394:	b80b883a 	mov	r5,r23
 1000398:	1009883a 	mov	r4,r2
 100039c:	1002ebc0 	call	1002ebc <__addsf3>
      // sum will temporarily store the sum of
      // cosine signals
      sum = 0;
      for (k = 0; k < m; k++) {
        for (l = 0; l < n; l++) {
          matrix[k][l] = matrix[k][l] - 128;
 10003a0:	e13ffd17 	ldw	r4,-12(fp)
          dct1 = matrix[k][l] *cos((2 * k + 1) * i * pi / (2 * m)) * cos((2 * l + 1) * j * pi / (2 * n));
          sum = sum + dct1;
 10003a4:	102f883a 	mov	r23,r2
      // sum will temporarily store the sum of
      // cosine signals
      sum = 0;
      for (k = 0; k < m; k++) {
        for (l = 0; l < n; l++) {
          matrix[k][l] = matrix[k][l] - 128;
 10003a8:	213fe004 	addi	r4,r4,-128
 10003ac:	e13ffd15 	stw	r4,-12(fp)
          dct1 = matrix[k][l] *cos((2 * k + 1) * i * pi / (2 * m)) * cos((2 * l + 1) * j * pi / (2 * n));
          sum = sum + dct1;
 10003b0:	100541c0 	call	100541c <__floatsidf>
 10003b4:	880d883a 	mov	r6,r17
 10003b8:	800f883a 	mov	r7,r16
 10003bc:	1009883a 	mov	r4,r2
 10003c0:	180b883a 	mov	r5,r3
 10003c4:	10042340 	call	1004234 <__muldf3>
 10003c8:	d9804c17 	ldw	r6,304(sp)
 10003cc:	d9c04d17 	ldw	r7,308(sp)
 10003d0:	1009883a 	mov	r4,r2
 10003d4:	180b883a 	mov	r5,r3
 10003d8:	10042340 	call	1004234 <__muldf3>
 10003dc:	180b883a 	mov	r5,r3
 10003e0:	1009883a 	mov	r4,r2
 10003e4:	10054f80 	call	10054f8 <__truncdfsf2>
 10003e8:	b80b883a 	mov	r5,r23
 10003ec:	1009883a 	mov	r4,r2
 10003f0:	1002ebc0 	call	1002ebc <__addsf3>
      // sum will temporarily store the sum of
      // cosine signals
      sum = 0;
      for (k = 0; k < m; k++) {
        for (l = 0; l < n; l++) {
          matrix[k][l] = matrix[k][l] - 128;
 10003f4:	e13ffe17 	ldw	r4,-8(fp)
          dct1 = matrix[k][l] *cos((2 * k + 1) * i * pi / (2 * m)) * cos((2 * l + 1) * j * pi / (2 * n));
          sum = sum + dct1;
 10003f8:	102f883a 	mov	r23,r2
      // sum will temporarily store the sum of
      // cosine signals
      sum = 0;
      for (k = 0; k < m; k++) {
        for (l = 0; l < n; l++) {
          matrix[k][l] = matrix[k][l] - 128;
 10003fc:	213fe004 	addi	r4,r4,-128
 1000400:	e13ffe15 	stw	r4,-8(fp)
          dct1 = matrix[k][l] *cos((2 * k + 1) * i * pi / (2 * m)) * cos((2 * l + 1) * j * pi / (2 * n));
          sum = sum + dct1;
 1000404:	100541c0 	call	100541c <__floatsidf>
 1000408:	880d883a 	mov	r6,r17
 100040c:	800f883a 	mov	r7,r16
 1000410:	1009883a 	mov	r4,r2
 1000414:	180b883a 	mov	r5,r3
 1000418:	10042340 	call	1004234 <__muldf3>
 100041c:	d9804e17 	ldw	r6,312(sp)
 1000420:	d9c04f17 	ldw	r7,316(sp)
 1000424:	1009883a 	mov	r4,r2
 1000428:	180b883a 	mov	r5,r3
 100042c:	10042340 	call	1004234 <__muldf3>
 1000430:	180b883a 	mov	r5,r3
 1000434:	1009883a 	mov	r4,r2
 1000438:	10054f80 	call	10054f8 <__truncdfsf2>
 100043c:	b80b883a 	mov	r5,r23
 1000440:	1009883a 	mov	r4,r2
 1000444:	1002ebc0 	call	1002ebc <__addsf3>
      // sum will temporarily store the sum of
      // cosine signals
      sum = 0;
      for (k = 0; k < m; k++) {
        for (l = 0; l < n; l++) {
          matrix[k][l] = matrix[k][l] - 128;
 1000448:	e13fff17 	ldw	r4,-4(fp)
          dct1 = matrix[k][l] *cos((2 * k + 1) * i * pi / (2 * m)) * cos((2 * l + 1) * j * pi / (2 * n));
          sum = sum + dct1;
 100044c:	102f883a 	mov	r23,r2
      // sum will temporarily store the sum of
      // cosine signals
      sum = 0;
      for (k = 0; k < m; k++) {
        for (l = 0; l < n; l++) {
          matrix[k][l] = matrix[k][l] - 128;
 1000450:	213fe004 	addi	r4,r4,-128
 1000454:	e13fff15 	stw	r4,-4(fp)
          dct1 = matrix[k][l] *cos((2 * k + 1) * i * pi / (2 * m)) * cos((2 * l + 1) * j * pi / (2 * n));
          sum = sum + dct1;
 1000458:	100541c0 	call	100541c <__floatsidf>
 100045c:	880d883a 	mov	r6,r17
 1000460:	800f883a 	mov	r7,r16
 1000464:	1009883a 	mov	r4,r2
 1000468:	180b883a 	mov	r5,r3
 100046c:	10042340 	call	1004234 <__muldf3>
 1000470:	d9805017 	ldw	r6,320(sp)
 1000474:	d9c04117 	ldw	r7,260(sp)
 1000478:	1009883a 	mov	r4,r2
 100047c:	180b883a 	mov	r5,r3
 1000480:	10042340 	call	1004234 <__muldf3>
 1000484:	180b883a 	mov	r5,r3
 1000488:	1009883a 	mov	r4,r2
 100048c:	10054f80 	call	10054f8 <__truncdfsf2>
 1000490:	b80b883a 	mov	r5,r23
 1000494:	1009883a 	mov	r4,r2
 1000498:	1002ebc0 	call	1002ebc <__addsf3>
      else
        cj = sqrt(2) / sqrt(n);
      // sum will temporarily store the sum of
      // cosine signals
      sum = 0;
      for (k = 0; k < m; k++) {
 100049c:	01000204 	movi	r4,8
        for (l = 0; l < n; l++) {
          matrix[k][l] = matrix[k][l] - 128;
          dct1 = matrix[k][l] *cos((2 * k + 1) * i * pi / (2 * m)) * cos((2 * l + 1) * j * pi / (2 * n));
          sum = sum + dct1;
 10004a0:	102f883a 	mov	r23,r2
      else
        cj = sqrt(2) / sqrt(n);
      // sum will temporarily store the sum of
      // cosine signals
      sum = 0;
      for (k = 0; k < m; k++) {
 10004a4:	a93f3c1e 	bne	r21,r4,1000198 <dctTransform+0x13c>
          sum = sum + dct1;
          //printf("%d\t", sum);
        }
      }
      Qdct[i][j] = ci * cj * sum;
      dct[i][j] = Qdct[i][j] / Qmatrix[i][j];
 10004a8:	d9405417 	ldw	r5,336(sp)
 10004ac:	1009883a 	mov	r4,r2
 10004b0:	10033840 	call	1003384 <__mulsf3>
 10004b4:	1009883a 	mov	r4,r2
 10004b8:	10037b40 	call	10037b4 <__fixsfsi>
 10004bc:	d8c05317 	ldw	r3,332(sp)
 10004c0:	010003c4 	movi	r4,15
 10004c4:	19400017 	ldw	r5,0(r3)
 10004c8:	1146b03a 	or	r3,r2,r5
 10004cc:	20c0c536 	bltu	r4,r3,10007e4 <dctTransform+0x788>
 10004d0:	1004913a 	slli	r2,r2,4
 10004d4:	00c04034 	movhi	r3,256
 10004d8:	18d94004 	addi	r3,r3,25856
 10004dc:	1144b03a 	or	r2,r2,r5
 10004e0:	10c5883a 	add	r2,r2,r3
 10004e4:	10800003 	ldbu	r2,0(r2)
 10004e8:	d9005217 	ldw	r4,328(sp)
 10004ec:	d8c05317 	ldw	r3,332(sp)
 10004f0:	20800015 	stw	r2,0(r4)
  int i, j, k, l;
  int dct[m][n];
  int Qdct[m][n];
  float ci, cj, dct1, sum;
  for (i = 0; i < m; i++) {
    for (j = 0; j < n; j++) {
 10004f4:	d8804017 	ldw	r2,256(sp)
 10004f8:	21000104 	addi	r4,r4,4
 10004fc:	18c00104 	addi	r3,r3,4
 1000500:	10800044 	addi	r2,r2,1
 1000504:	d9005215 	stw	r4,328(sp)
 1000508:	d8804015 	stw	r2,256(sp)
 100050c:	d8c05315 	stw	r3,332(sp)
 1000510:	01000204 	movi	r4,8
 1000514:	1100b626 	beq	r2,r4,10007f0 <dctTransform+0x794>
 1000518:	1009883a 	mov	r4,r2
 100051c:	100541c0 	call	100541c <__floatsidf>
 1000520:	018d7e34 	movhi	r6,13816
 1000524:	01d00274 	movhi	r7,16393
 1000528:	31826444 	addi	r6,r6,2449
 100052c:	39c92484 	addi	r7,r7,9362
 1000530:	1009883a 	mov	r4,r2
 1000534:	180b883a 	mov	r5,r3
 1000538:	10042340 	call	1004234 <__muldf3>
 100053c:	000d883a 	mov	r6,zero
 1000540:	01cfec34 	movhi	r7,16304
 1000544:	1009883a 	mov	r4,r2
 1000548:	180b883a 	mov	r5,r3
 100054c:	10042340 	call	1004234 <__muldf3>
 1000550:	180b883a 	mov	r5,r3
 1000554:	1009883a 	mov	r4,r2
 1000558:	1000bc80 	call	1000bc8 <cos>
 100055c:	d8c04315 	stw	r3,268(sp)
 1000560:	d8c04017 	ldw	r3,256(sp)
 1000564:	d8804215 	stw	r2,264(sp)
 1000568:	18c9883a 	add	r4,r3,r3
 100056c:	20c9883a 	add	r4,r4,r3
 1000570:	100541c0 	call	100541c <__floatsidf>
 1000574:	018d7e34 	movhi	r6,13816
 1000578:	01d00274 	movhi	r7,16393
 100057c:	31826444 	addi	r6,r6,2449
 1000580:	39c92484 	addi	r7,r7,9362
 1000584:	1009883a 	mov	r4,r2
 1000588:	180b883a 	mov	r5,r3
 100058c:	10042340 	call	1004234 <__muldf3>
 1000590:	000d883a 	mov	r6,zero
 1000594:	01cfec34 	movhi	r7,16304
 1000598:	1009883a 	mov	r4,r2
 100059c:	180b883a 	mov	r5,r3
 10005a0:	10042340 	call	1004234 <__muldf3>
 10005a4:	1009883a 	mov	r4,r2
 10005a8:	180b883a 	mov	r5,r3
 10005ac:	1000bc80 	call	1000bc8 <cos>
 10005b0:	d9004017 	ldw	r4,256(sp)
 10005b4:	01400144 	movi	r5,5
 10005b8:	d8c04515 	stw	r3,276(sp)
 10005bc:	d8804415 	stw	r2,272(sp)
 10005c0:	1002e940 	call	1002e94 <__mulsi3>
 10005c4:	1009883a 	mov	r4,r2
 10005c8:	100541c0 	call	100541c <__floatsidf>
 10005cc:	018d7e34 	movhi	r6,13816
 10005d0:	01d00274 	movhi	r7,16393
 10005d4:	31826444 	addi	r6,r6,2449
 10005d8:	39c92484 	addi	r7,r7,9362
 10005dc:	1009883a 	mov	r4,r2
 10005e0:	180b883a 	mov	r5,r3
 10005e4:	10042340 	call	1004234 <__muldf3>
 10005e8:	000d883a 	mov	r6,zero
 10005ec:	01cfec34 	movhi	r7,16304
 10005f0:	1009883a 	mov	r4,r2
 10005f4:	180b883a 	mov	r5,r3
 10005f8:	10042340 	call	1004234 <__muldf3>
 10005fc:	1009883a 	mov	r4,r2
 1000600:	180b883a 	mov	r5,r3
 1000604:	1000bc80 	call	1000bc8 <cos>
 1000608:	d9004017 	ldw	r4,256(sp)
 100060c:	014001c4 	movi	r5,7
 1000610:	d8c04715 	stw	r3,284(sp)
 1000614:	d8804615 	stw	r2,280(sp)
 1000618:	1002e940 	call	1002e94 <__mulsi3>
 100061c:	1009883a 	mov	r4,r2
 1000620:	100541c0 	call	100541c <__floatsidf>
 1000624:	018d7e34 	movhi	r6,13816
 1000628:	01d00274 	movhi	r7,16393
 100062c:	31826444 	addi	r6,r6,2449
 1000630:	39c92484 	addi	r7,r7,9362
 1000634:	1009883a 	mov	r4,r2
 1000638:	180b883a 	mov	r5,r3
 100063c:	10042340 	call	1004234 <__muldf3>
 1000640:	000d883a 	mov	r6,zero
 1000644:	01cfec34 	movhi	r7,16304
 1000648:	1009883a 	mov	r4,r2
 100064c:	180b883a 	mov	r5,r3
 1000650:	10042340 	call	1004234 <__muldf3>
 1000654:	1009883a 	mov	r4,r2
 1000658:	180b883a 	mov	r5,r3
 100065c:	1000bc80 	call	1000bc8 <cos>
 1000660:	d9004017 	ldw	r4,256(sp)
 1000664:	01400244 	movi	r5,9
 1000668:	d8c04915 	stw	r3,292(sp)
 100066c:	d8804815 	stw	r2,288(sp)
 1000670:	1002e940 	call	1002e94 <__mulsi3>
 1000674:	1009883a 	mov	r4,r2
 1000678:	100541c0 	call	100541c <__floatsidf>
 100067c:	018d7e34 	movhi	r6,13816
 1000680:	01d00274 	movhi	r7,16393
 1000684:	31826444 	addi	r6,r6,2449
 1000688:	39c92484 	addi	r7,r7,9362
 100068c:	1009883a 	mov	r4,r2
 1000690:	180b883a 	mov	r5,r3
 1000694:	10042340 	call	1004234 <__muldf3>
 1000698:	000d883a 	mov	r6,zero
 100069c:	01cfec34 	movhi	r7,16304
 10006a0:	1009883a 	mov	r4,r2
 10006a4:	180b883a 	mov	r5,r3
 10006a8:	10042340 	call	1004234 <__muldf3>
 10006ac:	1009883a 	mov	r4,r2
 10006b0:	180b883a 	mov	r5,r3
 10006b4:	1000bc80 	call	1000bc8 <cos>
 10006b8:	d9004017 	ldw	r4,256(sp)
 10006bc:	014002c4 	movi	r5,11
 10006c0:	d8c04b15 	stw	r3,300(sp)
 10006c4:	d8804a15 	stw	r2,296(sp)
 10006c8:	1002e940 	call	1002e94 <__mulsi3>
 10006cc:	1009883a 	mov	r4,r2
 10006d0:	100541c0 	call	100541c <__floatsidf>
 10006d4:	018d7e34 	movhi	r6,13816
 10006d8:	01d00274 	movhi	r7,16393
 10006dc:	31826444 	addi	r6,r6,2449
 10006e0:	39c92484 	addi	r7,r7,9362
 10006e4:	1009883a 	mov	r4,r2
 10006e8:	180b883a 	mov	r5,r3
 10006ec:	10042340 	call	1004234 <__muldf3>
 10006f0:	000d883a 	mov	r6,zero
 10006f4:	01cfec34 	movhi	r7,16304
 10006f8:	1009883a 	mov	r4,r2
 10006fc:	180b883a 	mov	r5,r3
 1000700:	10042340 	call	1004234 <__muldf3>
 1000704:	1009883a 	mov	r4,r2
 1000708:	180b883a 	mov	r5,r3
 100070c:	1000bc80 	call	1000bc8 <cos>
 1000710:	d9004017 	ldw	r4,256(sp)
 1000714:	01400344 	movi	r5,13
 1000718:	d8c04d15 	stw	r3,308(sp)
 100071c:	d8804c15 	stw	r2,304(sp)
 1000720:	1002e940 	call	1002e94 <__mulsi3>
 1000724:	1009883a 	mov	r4,r2
 1000728:	100541c0 	call	100541c <__floatsidf>
 100072c:	018d7e34 	movhi	r6,13816
 1000730:	01d00274 	movhi	r7,16393
 1000734:	31826444 	addi	r6,r6,2449
 1000738:	39c92484 	addi	r7,r7,9362
 100073c:	1009883a 	mov	r4,r2
 1000740:	180b883a 	mov	r5,r3
 1000744:	10042340 	call	1004234 <__muldf3>
 1000748:	000d883a 	mov	r6,zero
 100074c:	01cfec34 	movhi	r7,16304
 1000750:	1009883a 	mov	r4,r2
 1000754:	180b883a 	mov	r5,r3
 1000758:	10042340 	call	1004234 <__muldf3>
 100075c:	1009883a 	mov	r4,r2
 1000760:	180b883a 	mov	r5,r3
 1000764:	1000bc80 	call	1000bc8 <cos>
 1000768:	d9004017 	ldw	r4,256(sp)
 100076c:	014003c4 	movi	r5,15
 1000770:	d8c04f15 	stw	r3,316(sp)
 1000774:	d8804e15 	stw	r2,312(sp)
 1000778:	1002e940 	call	1002e94 <__mulsi3>
 100077c:	1009883a 	mov	r4,r2
 1000780:	100541c0 	call	100541c <__floatsidf>
 1000784:	018d7e34 	movhi	r6,13816
 1000788:	01d00274 	movhi	r7,16393
 100078c:	31826444 	addi	r6,r6,2449
 1000790:	39c92484 	addi	r7,r7,9362
 1000794:	1009883a 	mov	r4,r2
 1000798:	180b883a 	mov	r5,r3
 100079c:	10042340 	call	1004234 <__muldf3>
 10007a0:	000d883a 	mov	r6,zero
 10007a4:	01cfec34 	movhi	r7,16304
 10007a8:	1009883a 	mov	r4,r2
 10007ac:	180b883a 	mov	r5,r3
 10007b0:	10042340 	call	1004234 <__muldf3>
 10007b4:	1009883a 	mov	r4,r2
 10007b8:	180b883a 	mov	r5,r3
 10007bc:	1000bc80 	call	1000bc8 <cos>
 10007c0:	d9005917 	ldw	r4,356(sp)
 10007c4:	d8805015 	stw	r2,320(sp)
      // number of row and columns of specified matrix
      if (i == 0)
        ci = 1 / sqrt(m);
      else
        ci = sqrt(2) / sqrt(m);
      if (j == 0)
 10007c8:	d8804017 	ldw	r2,256(sp)
 10007cc:	d8c04115 	stw	r3,260(sp)
 10007d0:	d9005415 	stw	r4,336(sp)
 10007d4:	103e661e 	bne	r2,zero,1000170 <dctTransform+0x114>
 10007d8:	d8c06117 	ldw	r3,388(sp)
 10007dc:	d8c05415 	stw	r3,336(sp)
 10007e0:	003e6306 	br	1000170 <dctTransform+0x114>
          sum = sum + dct1;
          //printf("%d\t", sum);
        }
      }
      Qdct[i][j] = ci * cj * sum;
      dct[i][j] = Qdct[i][j] / Qmatrix[i][j];
 10007e4:	1009883a 	mov	r4,r2
 10007e8:	1002ce00 	call	1002ce0 <__divsi3>
 10007ec:	003f3e06 	br	10004e8 <dctTransform+0x48c>
 {
  int i, j, k, l;
  int dct[m][n];
  int Qdct[m][n];
  float ci, cj, dct1, sum;
  for (i = 0; i < m; i++) {
 10007f0:	d8805d17 	ldw	r2,372(sp)
 10007f4:	d8c05e17 	ldw	r3,376(sp)
 10007f8:	d9005f17 	ldw	r4,380(sp)
 10007fc:	10800044 	addi	r2,r2,1
 1000800:	18c00804 	addi	r3,r3,32
 1000804:	21000804 	addi	r4,r4,32
 1000808:	d8c05e15 	stw	r3,376(sp)
 100080c:	d8805d15 	stw	r2,372(sp)
 1000810:	d9005f15 	stw	r4,380(sp)
 1000814:	00c00204 	movi	r3,8
 1000818:	10c01c26 	beq	r2,r3,100088c <dctTransform+0x830>
 100081c:	1009883a 	mov	r4,r2
 1000820:	100541c0 	call	100541c <__floatsidf>
 1000824:	018d7e34 	movhi	r6,13816
 1000828:	01d00274 	movhi	r7,16393
 100082c:	31826444 	addi	r6,r6,2449
 1000830:	39c92484 	addi	r7,r7,9362
 1000834:	1009883a 	mov	r4,r2
 1000838:	180b883a 	mov	r5,r3
 100083c:	10042340 	call	1004234 <__muldf3>
 1000840:	000d883a 	mov	r6,zero
 1000844:	01cfec34 	movhi	r7,16304
 1000848:	1009883a 	mov	r4,r2
 100084c:	180b883a 	mov	r5,r3
 1000850:	10042340 	call	1004234 <__muldf3>
 1000854:	1009883a 	mov	r4,r2
 1000858:	180b883a 	mov	r5,r3
 100085c:	1000bc80 	call	1000bc8 <cos>
 1000860:	d9005d17 	ldw	r4,372(sp)
 1000864:	d8805615 	stw	r2,344(sp)
 1000868:	d8c05715 	stw	r3,348(sp)
 100086c:	203e1726 	beq	r4,zero,10000cc <dctTransform+0x70>
 1000870:	008fa034 	movhi	r2,16000
 1000874:	d8805915 	stw	r2,356(sp)
 1000878:	d8805d17 	ldw	r2,372(sp)
 100087c:	103e1826 	beq	r2,zero,10000e0 <dctTransform+0x84>
 1000880:	008f8d74 	movhi	r2,15925
 1000884:	10813cc4 	addi	r2,r2,1267
 1000888:	003e1706 	br	10000e8 <dctTransform+0x8c>
 100088c:	dc006017 	ldw	r16,384(sp)
 1000890:	dc404004 	addi	r17,sp,256
 1000894:	84800804 	addi	r18,r16,32
      // printf("%d\t", Qdct[i][j]);
    }
  }
    for (i = 0; i < m; i++) {
      for (j = 0; j < n; j++) {
        printf("%d\t",dct[i][j]);
 1000898:	81400017 	ldw	r5,0(r16)
 100089c:	01004034 	movhi	r4,256
 10008a0:	84000104 	addi	r16,r16,4
 10008a4:	21184904 	addi	r4,r4,24868
 10008a8:	10057680 	call	1005768 <printf>
      dct[i][j] = Qdct[i][j] / Qmatrix[i][j];
      // printf("%d\t", Qdct[i][j]);
    }
  }
    for (i = 0; i < m; i++) {
      for (j = 0; j < n; j++) {
 10008ac:	84bffa1e 	bne	r16,r18,1000898 <dctTransform+0x83c>
        printf("%d\t",dct[i][j]);
        }
	printf("\n");
 10008b0:	01000284 	movi	r4,10
 10008b4:	10057bc0 	call	10057bc <putchar>
      Qdct[i][j] = ci * cj * sum;
      dct[i][j] = Qdct[i][j] / Qmatrix[i][j];
      // printf("%d\t", Qdct[i][j]);
    }
  }
    for (i = 0; i < m; i++) {
 10008b8:	847ff61e 	bne	r16,r17,1000894 <dctTransform+0x838>
        }
	printf("\n");
        
    }
    return 0;
  }
 10008bc:	0005883a 	mov	r2,zero
 10008c0:	dfc06b17 	ldw	ra,428(sp)
 10008c4:	df006a17 	ldw	fp,424(sp)
 10008c8:	ddc06917 	ldw	r23,420(sp)
 10008cc:	dd806817 	ldw	r22,416(sp)
 10008d0:	dd406717 	ldw	r21,412(sp)
 10008d4:	dd006617 	ldw	r20,408(sp)
 10008d8:	dcc06517 	ldw	r19,404(sp)
 10008dc:	dc806417 	ldw	r18,400(sp)
 10008e0:	dc406317 	ldw	r17,396(sp)
 10008e4:	dc006217 	ldw	r16,392(sp)
 10008e8:	dec06c04 	addi	sp,sp,432
 10008ec:	f800283a 	ret

010008f0 <main>:
int main()
{
 10008f0:	deff7504 	addi	sp,sp,-556
            { 255, 255, 255, 255, 255, 255, 255, 255 },
            { 255, 255, 255, 255, 255, 255, 255, 255 },
            { 255, 255, 255, 255, 255, 255, 255, 255 },
            { 255, 255, 255, 255, 255, 255, 255, 255 } };*/

  int Qmatrix[8][8] = { { 16, 11, 10, 16, 24, 40, 51, 61 },
 10008f4:	01404034 	movhi	r5,256
 10008f8:	29584a04 	addi	r5,r5,24872
 10008fc:	01804004 	movi	r6,256
 1000900:	d809883a 	mov	r4,sp
        
    }
    return 0;
  }
int main()
{
 1000904:	dfc08a15 	stw	ra,552(sp)
 1000908:	df008915 	stw	fp,548(sp)
 100090c:	ddc08815 	stw	r23,544(sp)
 1000910:	dd808715 	stw	r22,540(sp)
 1000914:	dd408615 	stw	r21,536(sp)
 1000918:	dd008515 	stw	r20,532(sp)
 100091c:	dcc08415 	stw	r19,528(sp)
 1000920:	dc808315 	stw	r18,524(sp)
 1000924:	dc408215 	stw	r17,520(sp)
 1000928:	dc008115 	stw	r16,516(sp)
            { 255, 255, 255, 255, 255, 255, 255, 255 },
            { 255, 255, 255, 255, 255, 255, 255, 255 },
            { 255, 255, 255, 255, 255, 255, 255, 255 },
            { 255, 255, 255, 255, 255, 255, 255, 255 } };*/

  int Qmatrix[8][8] = { { 16, 11, 10, 16, 24, 40, 51, 61 },
 100092c:	10057040 	call	1005704 <memcpy>
     {
       matrix[t][r] =IORD_8DIRECT(LINE8_1_BASE, r);
     }
     if(t == 7 && r >= 4)
     {
       matrix[t][r] =IORD_8DIRECT(LINE8_2_BASE, r-4);
 1000930:	07008234 	movhi	fp,520
     {
       matrix[t][r] =IORD_8DIRECT(LINE7_2_BASE, r-4);
     }
     if(t == 7 && r < 4)
     {
       matrix[t][r] =IORD_8DIRECT(LINE8_1_BASE, r);
 1000934:	05c08234 	movhi	r23,520
     {
       matrix[t][r] =IORD_8DIRECT(LINE7_1_BASE, r);
     }
     if(t == 6 && r >= 4)
     {
       matrix[t][r] =IORD_8DIRECT(LINE7_2_BASE, r-4);
 1000938:	05808234 	movhi	r22,520
     {
       matrix[t][r] =IORD_8DIRECT(LINE6_2_BASE, r-4);
     }
     if(t == 6 && r < 4)
     {
       matrix[t][r] =IORD_8DIRECT(LINE7_1_BASE, r);
 100093c:	05408234 	movhi	r21,520
     {
       matrix[t][r] =IORD_8DIRECT(LINE6_1_BASE, r);
     }
     if(t == 5 && r >= 4)
     {
       matrix[t][r] =IORD_8DIRECT(LINE6_2_BASE, r-4);
 1000940:	05008234 	movhi	r20,520
     {
       matrix[t][r] =IORD_8DIRECT(LINE5_2_BASE, r-4);
     }
     if(t == 5 && r < 4)
     {
       matrix[t][r] =IORD_8DIRECT(LINE6_1_BASE, r);
 1000944:	04c08234 	movhi	r19,520
     {
       matrix[t][r] =IORD_8DIRECT(LINE4_2_BASE, r-4);
     }
     if(t == 4 && r < 4)
     {
       matrix[t][r] =IORD_8DIRECT(LINE5_1_BASE, r);
 1000948:	04808234 	movhi	r18,520
     }
     if(t == 4 && r >= 4)
     {
       matrix[t][r] =IORD_8DIRECT(LINE5_2_BASE, r-4);
 100094c:	04408234 	movhi	r17,520
     {
       matrix[t][r] =IORD_8DIRECT(LINE3_2_BASE, r-4);
     }
     if(t == 3 && r < 4)
     {
       matrix[t][r] =IORD_8DIRECT(LINE4_1_BASE, r);
 1000950:	04008234 	movhi	r16,520
     }
     if(t == 3 && r >= 4)
     {
       matrix[t][r] =IORD_8DIRECT(LINE4_2_BASE, r-4);
 1000954:	07c08234 	movhi	ra,520
            { 49, 64, 78, 87, 103, 121, 120, 101 },
            { 72, 92, 95, 98, 112, 100, 103, 99 } };
  int temp;
  int t, r;

  for(t = 0; t < 8; t++)
 1000958:	0005883a 	mov	r2,zero
     }
     if(t == 6 && r >= 4)
     {
       matrix[t][r] =IORD_8DIRECT(LINE7_2_BASE, r-4);
     }
     if(t == 7 && r < 4)
 100095c:	03c001c4 	movi	r15,7
 1000960:	034000c4 	movi	r13,3
     {
       matrix[t][r] =IORD_8DIRECT(LINE8_1_BASE, r);
     }
     if(t == 7 && r >= 4)
     {
       matrix[t][r] =IORD_8DIRECT(LINE8_2_BASE, r-4);
 1000964:	e7047304 	addi	fp,fp,4556
     {
       matrix[t][r] =IORD_8DIRECT(LINE7_2_BASE, r-4);
     }
     if(t == 7 && r < 4)
     {
       matrix[t][r] =IORD_8DIRECT(LINE8_1_BASE, r);
 1000968:	bdc47004 	addi	r23,r23,4544
     {
       matrix[t][r] =IORD_8DIRECT(LINE7_1_BASE, r);
     }
     if(t == 6 && r >= 4)
     {
       matrix[t][r] =IORD_8DIRECT(LINE7_2_BASE, r-4);
 100096c:	b5846b04 	addi	r22,r22,4524
     }
     if(t == 5 && r >= 4)
     {
       matrix[t][r] =IORD_8DIRECT(LINE6_2_BASE, r-4);
     }
     if(t == 6 && r < 4)
 1000970:	03800184 	movi	r14,6
     {
       matrix[t][r] =IORD_8DIRECT(LINE7_1_BASE, r);
 1000974:	ad446804 	addi	r21,r21,4512
     {
       matrix[t][r] =IORD_8DIRECT(LINE6_1_BASE, r);
     }
     if(t == 5 && r >= 4)
     {
       matrix[t][r] =IORD_8DIRECT(LINE6_2_BASE, r-4);
 1000978:	a5043f04 	addi	r20,r20,4348
     {
       matrix[t][r] =IORD_8DIRECT(LINE5_2_BASE, r-4);
     }
     if(t == 5 && r < 4)
     {
       matrix[t][r] =IORD_8DIRECT(LINE6_1_BASE, r);
 100097c:	9cc44404 	addi	r19,r19,4368
     {
       matrix[t][r] =IORD_8DIRECT(LINE4_2_BASE, r-4);
     }
     if(t == 4 && r < 4)
     {
       matrix[t][r] =IORD_8DIRECT(LINE5_1_BASE, r);
 1000980:	94844c04 	addi	r18,r18,4400
     }
     if(t == 4 && r >= 4)
     {
       matrix[t][r] =IORD_8DIRECT(LINE5_2_BASE, r-4);
 1000984:	8c444704 	addi	r17,r17,4380
     {
       matrix[t][r] =IORD_8DIRECT(LINE3_2_BASE, r-4);
     }
     if(t == 3 && r < 4)
     {
       matrix[t][r] =IORD_8DIRECT(LINE4_1_BASE, r);
 1000988:	84045404 	addi	r16,r16,4432
     }
     if(t == 3 && r >= 4)
     {
       matrix[t][r] =IORD_8DIRECT(LINE4_2_BASE, r-4);
 100098c:	ffc44f04 	addi	ra,ra,4412
 1000990:	dac07804 	addi	r11,sp,480
 1000994:	da804004 	addi	r10,sp,256
 1000998:	da406804 	addi	r9,sp,416
 100099c:	da005804 	addi	r8,sp,352
 10009a0:	d9c04804 	addi	r7,sp,288
 10009a4:	d9805004 	addi	r6,sp,320
 10009a8:	d9406004 	addi	r5,sp,384
 10009ac:	d9007004 	addi	r4,sp,448
        
    }
    return 0;
  }
int main()
{
 10009b0:	0007883a 	mov	r3,zero
  for(t = 0; t < 8; t++)
  {
   for(r = 0; r < 8; r++)
   {

     if(t == 0 && r < 4)
 10009b4:	10003f26 	beq	r2,zero,1000ab4 <main+0x1c4>
     }
     if(t == 0 && r >= 4)
     {
       matrix[t][r] =IORD_8DIRECT(LINE1_2_BASE, r-4);
     }
     if(t == 1 && r < 4)
 10009b8:	03000044 	movi	r12,1
 10009bc:	13005326 	beq	r2,r12,1000b0c <main+0x21c>
     }
     if(t == 1 && r >= 4)
     {
       matrix[t][r] =IORD_8DIRECT(LINE2_2_BASE, r-4);
     }
     if(t == 2 && r < 4)
 10009c0:	03000084 	movi	r12,2
 10009c4:	13003226 	beq	r2,r12,1000a90 <main+0x1a0>
     }
     if(t == 2 && r >= 4)
     {
       matrix[t][r] =IORD_8DIRECT(LINE3_2_BASE, r-4);
     }
     if(t == 3 && r < 4)
 10009c8:	13405926 	beq	r2,r13,1000b30 <main+0x240>
     }
     if(t == 3 && r >= 4)
     {
       matrix[t][r] =IORD_8DIRECT(LINE4_2_BASE, r-4);
     }
     if(t == 4 && r < 4)
 10009cc:	03000104 	movi	r12,4
 10009d0:	13004726 	beq	r2,r12,1000af0 <main+0x200>
     }
     if(t == 4 && r >= 4)
     {
       matrix[t][r] =IORD_8DIRECT(LINE5_2_BASE, r-4);
     }
     if(t == 5 && r < 4)
 10009d4:	03000144 	movi	r12,5
 10009d8:	13002526 	beq	r2,r12,1000a70 <main+0x180>
     }
     if(t == 5 && r >= 4)
     {
       matrix[t][r] =IORD_8DIRECT(LINE6_2_BASE, r-4);
     }
     if(t == 6 && r < 4)
 10009dc:	13801e26 	beq	r2,r14,1000a58 <main+0x168>
     }
     if(t == 6 && r >= 4)
     {
       matrix[t][r] =IORD_8DIRECT(LINE7_2_BASE, r-4);
     }
     if(t == 7 && r < 4)
 10009e0:	13c03d26 	beq	r2,r15,1000ad8 <main+0x1e8>
  int temp;
  int t, r;

  for(t = 0; t < 8; t++)
  {
   for(r = 0; r < 8; r++)
 10009e4:	18c00044 	addi	r3,r3,1
 10009e8:	03000204 	movi	r12,8
 10009ec:	5ac00104 	addi	r11,r11,4
 10009f0:	52800104 	addi	r10,r10,4
 10009f4:	4a400104 	addi	r9,r9,4
 10009f8:	42000104 	addi	r8,r8,4
 10009fc:	39c00104 	addi	r7,r7,4
 1000a00:	31800104 	addi	r6,r6,4
 1000a04:	29400104 	addi	r5,r5,4
 1000a08:	21000104 	addi	r4,r4,4
 1000a0c:	1b3fe91e 	bne	r3,r12,10009b4 <main+0xc4>
            { 49, 64, 78, 87, 103, 121, 120, 101 },
            { 72, 92, 95, 98, 112, 100, 103, 99 } };
  int temp;
  int t, r;

  for(t = 0; t < 8; t++)
 1000a10:	10800044 	addi	r2,r2,1
 1000a14:	10ffde1e 	bne	r2,r3,1000990 <main+0xa0>
       matrix[t][r] =IORD_8DIRECT(LINE8_2_BASE, r-4);
     }
   }
  }

  dctTransform(matrix, Qmatrix);
 1000a18:	d80b883a 	mov	r5,sp
 1000a1c:	d9004004 	addi	r4,sp,256
 1000a20:	100005c0 	call	100005c <dctTransform>
return 0;
}
 1000a24:	0005883a 	mov	r2,zero
 1000a28:	dfc08a17 	ldw	ra,552(sp)
 1000a2c:	df008917 	ldw	fp,548(sp)
 1000a30:	ddc08817 	ldw	r23,544(sp)
 1000a34:	dd808717 	ldw	r22,540(sp)
 1000a38:	dd408617 	ldw	r21,536(sp)
 1000a3c:	dd008517 	ldw	r20,532(sp)
 1000a40:	dcc08417 	ldw	r19,528(sp)
 1000a44:	dc808317 	ldw	r18,524(sp)
 1000a48:	dc408217 	ldw	r17,520(sp)
 1000a4c:	dc008117 	ldw	r16,516(sp)
 1000a50:	dec08b04 	addi	sp,sp,556
 1000a54:	f800283a 	ret
     }
     if(t == 5 && r >= 4)
     {
       matrix[t][r] =IORD_8DIRECT(LINE6_2_BASE, r-4);
     }
     if(t == 6 && r < 4)
 1000a58:	68c0510e 	bge	r13,r3,1000ba0 <main+0x2b0>
     {
       matrix[t][r] =IORD_8DIRECT(LINE7_1_BASE, r);
     }
     if(t == 6 && r >= 4)
     {
       matrix[t][r] =IORD_8DIRECT(LINE7_2_BASE, r-4);
 1000a5c:	1d99883a 	add	r12,r3,r22
 1000a60:	63000023 	ldbuio	r12,0(r12)
 1000a64:	63003fcc 	andi	r12,r12,255
 1000a68:	23000015 	stw	r12,0(r4)
 1000a6c:	003fdd06 	br	10009e4 <main+0xf4>
     }
     if(t == 4 && r >= 4)
     {
       matrix[t][r] =IORD_8DIRECT(LINE5_2_BASE, r-4);
     }
     if(t == 5 && r < 4)
 1000a70:	68c0500e 	bge	r13,r3,1000bb4 <main+0x2c4>
     {
       matrix[t][r] =IORD_8DIRECT(LINE6_1_BASE, r);
     }
     if(t == 5 && r >= 4)
     {
       matrix[t][r] =IORD_8DIRECT(LINE6_2_BASE, r-4);
 1000a74:	1d19883a 	add	r12,r3,r20
 1000a78:	63000023 	ldbuio	r12,0(r12)
 1000a7c:	63003fcc 	andi	r12,r12,255
 1000a80:	4b000015 	stw	r12,0(r9)
     }
     if(t == 6 && r < 4)
     {
       matrix[t][r] =IORD_8DIRECT(LINE7_1_BASE, r);
     }
     if(t == 6 && r >= 4)
 1000a84:	13bfd61e 	bne	r2,r14,10009e0 <main+0xf0>
 1000a88:	68ffd60e 	bge	r13,r3,10009e4 <main+0xf4>
 1000a8c:	003ff306 	br	1000a5c <main+0x16c>
     {
       matrix[t][r] =IORD_8DIRECT(LINE2_2_BASE, r-4);
     }
     if(t == 2 && r < 4)
     {
       matrix[t][r] =IORD_8DIRECT(LINE3_1_BASE, r);
 1000a90:	03008234 	movhi	r12,520
     }
     if(t == 1 && r >= 4)
     {
       matrix[t][r] =IORD_8DIRECT(LINE2_2_BASE, r-4);
     }
     if(t == 2 && r < 4)
 1000a94:	68c02c0e 	bge	r13,r3,1000b48 <main+0x258>
     {
       matrix[t][r] =IORD_8DIRECT(LINE3_1_BASE, r);
     }
     if(t == 2 && r >= 4)
     {
       matrix[t][r] =IORD_8DIRECT(LINE3_2_BASE, r-4);
 1000a98:	63045704 	addi	r12,r12,4444
     {
       matrix[t][r] =IORD_8DIRECT(LINE2_2_BASE, r-4);
     }
     if(t == 2 && r < 4)
     {
       matrix[t][r] =IORD_8DIRECT(LINE3_1_BASE, r);
 1000a9c:	1b19883a 	add	r12,r3,r12
 1000aa0:	63000023 	ldbuio	r12,0(r12)
 1000aa4:	db008005 	stb	r12,512(sp)
 1000aa8:	63003fcc 	andi	r12,r12,255
 1000aac:	33000015 	stw	r12,0(r6)
 1000ab0:	003fc606 	br	10009cc <main+0xdc>
   for(r = 0; r < 8; r++)
   {

     if(t == 0 && r < 4)
     {
       matrix[t][r] =IORD_8DIRECT(LINE1_1_BASE, r);
 1000ab4:	03008234 	movhi	r12,520
  for(t = 0; t < 8; t++)
  {
   for(r = 0; r < 8; r++)
   {

     if(t == 0 && r < 4)
 1000ab8:	68c0350e 	bge	r13,r3,1000b90 <main+0x2a0>
     {
       matrix[t][r] =IORD_8DIRECT(LINE1_1_BASE, r);
     }
     if(t == 0 && r >= 4)
     {
       matrix[t][r] =IORD_8DIRECT(LINE1_2_BASE, r-4);
 1000abc:	63047704 	addi	r12,r12,4572
 1000ac0:	1b19883a 	add	r12,r3,r12
 1000ac4:	63000023 	ldbuio	r12,0(r12)
 1000ac8:	db008005 	stb	r12,512(sp)
 1000acc:	63003fcc 	andi	r12,r12,255
 1000ad0:	53000015 	stw	r12,0(r10)
 1000ad4:	003fbc06 	br	10009c8 <main+0xd8>
     }
     if(t == 6 && r >= 4)
     {
       matrix[t][r] =IORD_8DIRECT(LINE7_2_BASE, r-4);
     }
     if(t == 7 && r < 4)
 1000ad8:	68c0220e 	bge	r13,r3,1000b64 <main+0x274>
     {
       matrix[t][r] =IORD_8DIRECT(LINE8_1_BASE, r);
     }
     if(t == 7 && r >= 4)
     {
       matrix[t][r] =IORD_8DIRECT(LINE8_2_BASE, r-4);
 1000adc:	1f19883a 	add	r12,r3,fp
 1000ae0:	63000023 	ldbuio	r12,0(r12)
 1000ae4:	63003fcc 	andi	r12,r12,255
 1000ae8:	5b000015 	stw	r12,0(r11)
 1000aec:	003fbd06 	br	10009e4 <main+0xf4>
     }
     if(t == 3 && r >= 4)
     {
       matrix[t][r] =IORD_8DIRECT(LINE4_2_BASE, r-4);
     }
     if(t == 4 && r < 4)
 1000af0:	68c0210e 	bge	r13,r3,1000b78 <main+0x288>
     {
       matrix[t][r] =IORD_8DIRECT(LINE5_1_BASE, r);
     }
     if(t == 4 && r >= 4)
     {
       matrix[t][r] =IORD_8DIRECT(LINE5_2_BASE, r-4);
 1000af4:	1c59883a 	add	r12,r3,r17
 1000af8:	63000023 	ldbuio	r12,0(r12)
 1000afc:	63003fcc 	andi	r12,r12,255
 1000b00:	2b000015 	stw	r12,0(r5)
     }
     if(t == 5 && r >= 4)
     {
       matrix[t][r] =IORD_8DIRECT(LINE6_2_BASE, r-4);
     }
     if(t == 6 && r < 4)
 1000b04:	13bfb61e 	bne	r2,r14,10009e0 <main+0xf0>
 1000b08:	003fd306 	br	1000a58 <main+0x168>
     {
       matrix[t][r] =IORD_8DIRECT(LINE1_2_BASE, r-4);
     }
     if(t == 1 && r < 4)
     {
       matrix[t][r] =IORD_8DIRECT(LINE2_1_BASE, r);
 1000b0c:	03008234 	movhi	r12,520
     }
     if(t == 0 && r >= 4)
     {
       matrix[t][r] =IORD_8DIRECT(LINE1_2_BASE, r-4);
     }
     if(t == 1 && r < 4)
 1000b10:	68c0210e 	bge	r13,r3,1000b98 <main+0x2a8>
     {
       matrix[t][r] =IORD_8DIRECT(LINE2_1_BASE, r);
     }
     if(t == 1 && r >= 4)
     {
       matrix[t][r] =IORD_8DIRECT(LINE2_2_BASE, r-4);
 1000b14:	63045f04 	addi	r12,r12,4476
 1000b18:	1b19883a 	add	r12,r3,r12
 1000b1c:	63000023 	ldbuio	r12,0(r12)
 1000b20:	db008005 	stb	r12,512(sp)
 1000b24:	63003fcc 	andi	r12,r12,255
 1000b28:	3b000015 	stw	r12,0(r7)
 1000b2c:	003fa606 	br	10009c8 <main+0xd8>
     }
     if(t == 2 && r >= 4)
     {
       matrix[t][r] =IORD_8DIRECT(LINE3_2_BASE, r-4);
     }
     if(t == 3 && r < 4)
 1000b30:	10c0070e 	bge	r2,r3,1000b50 <main+0x260>
     {
       matrix[t][r] =IORD_8DIRECT(LINE4_1_BASE, r);
     }
     if(t == 3 && r >= 4)
     {
       matrix[t][r] =IORD_8DIRECT(LINE4_2_BASE, r-4);
 1000b34:	1fd9883a 	add	r12,r3,ra
 1000b38:	63000023 	ldbuio	r12,0(r12)
 1000b3c:	63003fcc 	andi	r12,r12,255
 1000b40:	43000015 	stw	r12,0(r8)
 1000b44:	003fa306 	br	10009d4 <main+0xe4>
     {
       matrix[t][r] =IORD_8DIRECT(LINE2_2_BASE, r-4);
     }
     if(t == 2 && r < 4)
     {
       matrix[t][r] =IORD_8DIRECT(LINE3_1_BASE, r);
 1000b48:	63045c04 	addi	r12,r12,4464
 1000b4c:	003fd306 	br	1000a9c <main+0x1ac>
     {
       matrix[t][r] =IORD_8DIRECT(LINE3_2_BASE, r-4);
     }
     if(t == 3 && r < 4)
     {
       matrix[t][r] =IORD_8DIRECT(LINE4_1_BASE, r);
 1000b50:	1c19883a 	add	r12,r3,r16
 1000b54:	63000023 	ldbuio	r12,0(r12)
 1000b58:	63003fcc 	andi	r12,r12,255
 1000b5c:	43000015 	stw	r12,0(r8)
 1000b60:	003f9c06 	br	10009d4 <main+0xe4>
     {
       matrix[t][r] =IORD_8DIRECT(LINE7_2_BASE, r-4);
     }
     if(t == 7 && r < 4)
     {
       matrix[t][r] =IORD_8DIRECT(LINE8_1_BASE, r);
 1000b64:	1dd9883a 	add	r12,r3,r23
 1000b68:	63000023 	ldbuio	r12,0(r12)
 1000b6c:	63003fcc 	andi	r12,r12,255
 1000b70:	5b000015 	stw	r12,0(r11)
 1000b74:	003f9b06 	br	10009e4 <main+0xf4>
     {
       matrix[t][r] =IORD_8DIRECT(LINE4_2_BASE, r-4);
     }
     if(t == 4 && r < 4)
     {
       matrix[t][r] =IORD_8DIRECT(LINE5_1_BASE, r);
 1000b78:	1c99883a 	add	r12,r3,r18
 1000b7c:	63000023 	ldbuio	r12,0(r12)
 1000b80:	63003fcc 	andi	r12,r12,255
 1000b84:	2b000015 	stw	r12,0(r5)
     }
     if(t == 5 && r >= 4)
     {
       matrix[t][r] =IORD_8DIRECT(LINE6_2_BASE, r-4);
     }
     if(t == 6 && r < 4)
 1000b88:	13bf951e 	bne	r2,r14,10009e0 <main+0xf0>
 1000b8c:	003fb206 	br	1000a58 <main+0x168>
   for(r = 0; r < 8; r++)
   {

     if(t == 0 && r < 4)
     {
       matrix[t][r] =IORD_8DIRECT(LINE1_1_BASE, r);
 1000b90:	63047c04 	addi	r12,r12,4592
 1000b94:	003fca06 	br	1000ac0 <main+0x1d0>
     {
       matrix[t][r] =IORD_8DIRECT(LINE1_2_BASE, r-4);
     }
     if(t == 1 && r < 4)
     {
       matrix[t][r] =IORD_8DIRECT(LINE2_1_BASE, r);
 1000b98:	63046404 	addi	r12,r12,4496
 1000b9c:	003fde06 	br	1000b18 <main+0x228>
     {
       matrix[t][r] =IORD_8DIRECT(LINE6_2_BASE, r-4);
     }
     if(t == 6 && r < 4)
     {
       matrix[t][r] =IORD_8DIRECT(LINE7_1_BASE, r);
 1000ba0:	1d59883a 	add	r12,r3,r21
 1000ba4:	63000023 	ldbuio	r12,0(r12)
 1000ba8:	63003fcc 	andi	r12,r12,255
 1000bac:	23000015 	stw	r12,0(r4)
 1000bb0:	003f8c06 	br	10009e4 <main+0xf4>
     {
       matrix[t][r] =IORD_8DIRECT(LINE5_2_BASE, r-4);
     }
     if(t == 5 && r < 4)
     {
       matrix[t][r] =IORD_8DIRECT(LINE6_1_BASE, r);
 1000bb4:	1cd9883a 	add	r12,r3,r19
 1000bb8:	63000023 	ldbuio	r12,0(r12)
 1000bbc:	63003fcc 	andi	r12,r12,255
 1000bc0:	4b000015 	stw	r12,0(r9)
 1000bc4:	003f8606 	br	10009e0 <main+0xf0>

01000bc8 <cos>:
 1000bc8:	00a00034 	movhi	r2,32768
 1000bcc:	defffa04 	addi	sp,sp,-24
 1000bd0:	10bfffc4 	addi	r2,r2,-1
 1000bd4:	00cffa74 	movhi	r3,16361
 1000bd8:	dfc00515 	stw	ra,20(sp)
 1000bdc:	2884703a 	and	r2,r5,r2
 1000be0:	18c87ec4 	addi	r3,r3,8699
 1000be4:	1880180e 	bge	r3,r2,1000c48 <cos+0x80>
 1000be8:	00dffc34 	movhi	r3,32752
 1000bec:	18ffffc4 	addi	r3,r3,-1
 1000bf0:	1880060e 	bge	r3,r2,1000c0c <cos+0x44>
 1000bf4:	280f883a 	mov	r7,r5
 1000bf8:	200d883a 	mov	r6,r4
 1000bfc:	1004aa00 	call	1004aa0 <__subdf3>
 1000c00:	dfc00517 	ldw	ra,20(sp)
 1000c04:	dec00604 	addi	sp,sp,24
 1000c08:	f800283a 	ret
 1000c0c:	d9800104 	addi	r6,sp,4
 1000c10:	1000cb40 	call	1000cb4 <__ieee754_rem_pio2>
 1000c14:	108000cc 	andi	r2,r2,3
 1000c18:	00c00044 	movi	r3,1
 1000c1c:	10c01726 	beq	r2,r3,1000c7c <cos+0xb4>
 1000c20:	01000084 	movi	r4,2
 1000c24:	11000e26 	beq	r2,r4,1000c60 <cos+0x98>
 1000c28:	10001c26 	beq	r2,zero,1000c9c <cos+0xd4>
 1000c2c:	d9800317 	ldw	r6,12(sp)
 1000c30:	d9c00417 	ldw	r7,16(sp)
 1000c34:	d9000117 	ldw	r4,4(sp)
 1000c38:	d9400217 	ldw	r5,8(sp)
 1000c3c:	d8c00015 	stw	r3,0(sp)
 1000c40:	100265c0 	call	100265c <__kernel_sin>
 1000c44:	003fee06 	br	1000c00 <cos+0x38>
 1000c48:	000d883a 	mov	r6,zero
 1000c4c:	000f883a 	mov	r7,zero
 1000c50:	10014200 	call	1001420 <__kernel_cos>
 1000c54:	dfc00517 	ldw	ra,20(sp)
 1000c58:	dec00604 	addi	sp,sp,24
 1000c5c:	f800283a 	ret
 1000c60:	d9800317 	ldw	r6,12(sp)
 1000c64:	d9c00417 	ldw	r7,16(sp)
 1000c68:	d9000117 	ldw	r4,4(sp)
 1000c6c:	d9400217 	ldw	r5,8(sp)
 1000c70:	10014200 	call	1001420 <__kernel_cos>
 1000c74:	18e0003c 	xorhi	r3,r3,32768
 1000c78:	003fe106 	br	1000c00 <cos+0x38>
 1000c7c:	d9800317 	ldw	r6,12(sp)
 1000c80:	d9c00417 	ldw	r7,16(sp)
 1000c84:	d9000117 	ldw	r4,4(sp)
 1000c88:	d9400217 	ldw	r5,8(sp)
 1000c8c:	d8800015 	stw	r2,0(sp)
 1000c90:	100265c0 	call	100265c <__kernel_sin>
 1000c94:	18e0003c 	xorhi	r3,r3,32768
 1000c98:	003fd906 	br	1000c00 <cos+0x38>
 1000c9c:	d9800317 	ldw	r6,12(sp)
 1000ca0:	d9c00417 	ldw	r7,16(sp)
 1000ca4:	d9000117 	ldw	r4,4(sp)
 1000ca8:	d9400217 	ldw	r5,8(sp)
 1000cac:	10014200 	call	1001420 <__kernel_cos>
 1000cb0:	003fd306 	br	1000c00 <cos+0x38>

01000cb4 <__ieee754_rem_pio2>:
 1000cb4:	02200034 	movhi	r8,32768
 1000cb8:	deffea04 	addi	sp,sp,-88
 1000cbc:	423fffc4 	addi	r8,r8,-1
 1000cc0:	00cffa74 	movhi	r3,16361
 1000cc4:	ddc01315 	stw	r23,76(sp)
 1000cc8:	dc400d15 	stw	r17,52(sp)
 1000ccc:	dfc01515 	stw	ra,84(sp)
 1000cd0:	df001415 	stw	fp,80(sp)
 1000cd4:	dd801215 	stw	r22,72(sp)
 1000cd8:	dd401115 	stw	r21,68(sp)
 1000cdc:	dd001015 	stw	r20,64(sp)
 1000ce0:	dcc00f15 	stw	r19,60(sp)
 1000ce4:	dc800e15 	stw	r18,56(sp)
 1000ce8:	dc000c15 	stw	r16,48(sp)
 1000cec:	2a2e703a 	and	r23,r5,r8
 1000cf0:	18c87ec4 	addi	r3,r3,8699
 1000cf4:	2823883a 	mov	r17,r5
 1000cf8:	1dc0790e 	bge	r3,r23,1000ee0 <__ieee754_rem_pio2+0x22c>
 1000cfc:	009000f4 	movhi	r2,16387
 1000d00:	10b65ec4 	addi	r2,r2,-9861
 1000d04:	3021883a 	mov	r16,r6
 1000d08:	2027883a 	mov	r19,r4
 1000d0c:	15c02316 	blt	r2,r23,1000d9c <__ieee754_rem_pio2+0xe8>
 1000d10:	01cffe74 	movhi	r7,16377
 1000d14:	39c87ec4 	addi	r7,r7,8699
 1000d18:	01951034 	movhi	r6,21568
 1000d1c:	01417a0e 	bge	zero,r5,1001308 <__ieee754_rem_pio2+0x654>
 1000d20:	1004aa00 	call	1004aa0 <__subdf3>
 1000d24:	1025883a 	mov	r18,r2
 1000d28:	008ffe74 	movhi	r2,16377
 1000d2c:	10887ec4 	addi	r2,r2,8699
 1000d30:	1823883a 	mov	r17,r3
 1000d34:	b8808426 	beq	r23,r2,1000f48 <__ieee754_rem_pio2+0x294>
 1000d38:	018698b4 	movhi	r6,6754
 1000d3c:	01cf7474 	movhi	r7,15825
 1000d40:	3198cc44 	addi	r6,r6,25393
 1000d44:	39ed1844 	addi	r7,r7,-19359
 1000d48:	9009883a 	mov	r4,r18
 1000d4c:	180b883a 	mov	r5,r3
 1000d50:	1004aa00 	call	1004aa0 <__subdf3>
 1000d54:	100d883a 	mov	r6,r2
 1000d58:	180f883a 	mov	r7,r3
 1000d5c:	9009883a 	mov	r4,r18
 1000d60:	880b883a 	mov	r5,r17
 1000d64:	80800015 	stw	r2,0(r16)
 1000d68:	80c00115 	stw	r3,4(r16)
 1000d6c:	1004aa00 	call	1004aa0 <__subdf3>
 1000d70:	018698b4 	movhi	r6,6754
 1000d74:	01cf7474 	movhi	r7,15825
 1000d78:	3198cc44 	addi	r6,r6,25393
 1000d7c:	39ed1844 	addi	r7,r7,-19359
 1000d80:	1009883a 	mov	r4,r2
 1000d84:	180b883a 	mov	r5,r3
 1000d88:	1004aa00 	call	1004aa0 <__subdf3>
 1000d8c:	80800215 	stw	r2,8(r16)
 1000d90:	80c00315 	stw	r3,12(r16)
 1000d94:	00800044 	movi	r2,1
 1000d98:	00005606 	br	1000ef4 <__ieee754_rem_pio2+0x240>
 1000d9c:	00904e74 	movhi	r2,16697
 1000da0:	10887ec4 	addi	r2,r2,8699
 1000da4:	15c0830e 	bge	r2,r23,1000fb4 <__ieee754_rem_pio2+0x300>
 1000da8:	009ffc34 	movhi	r2,32752
 1000dac:	10bfffc4 	addi	r2,r2,-1
 1000db0:	15c05c16 	blt	r2,r23,1000f24 <__ieee754_rem_pio2+0x270>
 1000db4:	b829d53a 	srai	r20,r23,20
 1000db8:	a53efa84 	addi	r20,r20,-1046
 1000dbc:	a024953a 	slli	r18,r20,20
 1000dc0:	bca5c83a 	sub	r18,r23,r18
 1000dc4:	900b883a 	mov	r5,r18
 1000dc8:	100539c0 	call	100539c <__fixdfsi>
 1000dcc:	1009883a 	mov	r4,r2
 1000dd0:	100541c0 	call	100541c <__floatsidf>
 1000dd4:	9809883a 	mov	r4,r19
 1000dd8:	900b883a 	mov	r5,r18
 1000ddc:	100d883a 	mov	r6,r2
 1000de0:	180f883a 	mov	r7,r3
 1000de4:	d8800215 	stw	r2,8(sp)
 1000de8:	d8c00315 	stw	r3,12(sp)
 1000dec:	1004aa00 	call	1004aa0 <__subdf3>
 1000df0:	000d883a 	mov	r6,zero
 1000df4:	01d05c34 	movhi	r7,16752
 1000df8:	1009883a 	mov	r4,r2
 1000dfc:	180b883a 	mov	r5,r3
 1000e00:	10042340 	call	1004234 <__muldf3>
 1000e04:	180b883a 	mov	r5,r3
 1000e08:	1009883a 	mov	r4,r2
 1000e0c:	182b883a 	mov	r21,r3
 1000e10:	102d883a 	mov	r22,r2
 1000e14:	100539c0 	call	100539c <__fixdfsi>
 1000e18:	1009883a 	mov	r4,r2
 1000e1c:	100541c0 	call	100541c <__floatsidf>
 1000e20:	100d883a 	mov	r6,r2
 1000e24:	180f883a 	mov	r7,r3
 1000e28:	b009883a 	mov	r4,r22
 1000e2c:	a80b883a 	mov	r5,r21
 1000e30:	1027883a 	mov	r19,r2
 1000e34:	1825883a 	mov	r18,r3
 1000e38:	d8800415 	stw	r2,16(sp)
 1000e3c:	d8c00515 	stw	r3,20(sp)
 1000e40:	1004aa00 	call	1004aa0 <__subdf3>
 1000e44:	000d883a 	mov	r6,zero
 1000e48:	01d05c34 	movhi	r7,16752
 1000e4c:	1009883a 	mov	r4,r2
 1000e50:	180b883a 	mov	r5,r3
 1000e54:	10042340 	call	1004234 <__muldf3>
 1000e58:	000d883a 	mov	r6,zero
 1000e5c:	000f883a 	mov	r7,zero
 1000e60:	1009883a 	mov	r4,r2
 1000e64:	180b883a 	mov	r5,r3
 1000e68:	d8800615 	stw	r2,24(sp)
 1000e6c:	d8c00715 	stw	r3,28(sp)
 1000e70:	10040d00 	call	10040d0 <__eqdf2>
 1000e74:	1001431e 	bne	r2,zero,1001384 <__ieee754_rem_pio2+0x6d0>
 1000e78:	000f883a 	mov	r7,zero
 1000e7c:	000d883a 	mov	r6,zero
 1000e80:	9809883a 	mov	r4,r19
 1000e84:	900b883a 	mov	r5,r18
 1000e88:	10040d00 	call	10040d0 <__eqdf2>
 1000e8c:	100f003a 	cmpeq	r7,r2,zero
 1000e90:	00800084 	movi	r2,2
 1000e94:	11cfc83a 	sub	r7,r2,r7
 1000e98:	00800084 	movi	r2,2
 1000e9c:	d8800015 	stw	r2,0(sp)
 1000ea0:	00804034 	movhi	r2,256
 1000ea4:	1098aa04 	addi	r2,r2,25256
 1000ea8:	d8800115 	stw	r2,4(sp)
 1000eac:	a00d883a 	mov	r6,r20
 1000eb0:	800b883a 	mov	r5,r16
 1000eb4:	d9000204 	addi	r4,sp,8
 1000eb8:	10018c40 	call	10018c4 <__kernel_rem_pio2>
 1000ebc:	88000d0e 	bge	r17,zero,1000ef4 <__ieee754_rem_pio2+0x240>
 1000ec0:	81000117 	ldw	r4,4(r16)
 1000ec4:	80c00317 	ldw	r3,12(r16)
 1000ec8:	0085c83a 	sub	r2,zero,r2
 1000ecc:	2120003c 	xorhi	r4,r4,32768
 1000ed0:	18e0003c 	xorhi	r3,r3,32768
 1000ed4:	81000115 	stw	r4,4(r16)
 1000ed8:	80c00315 	stw	r3,12(r16)
 1000edc:	00000506 	br	1000ef4 <__ieee754_rem_pio2+0x240>
 1000ee0:	31000015 	stw	r4,0(r6)
 1000ee4:	31400115 	stw	r5,4(r6)
 1000ee8:	30000215 	stw	zero,8(r6)
 1000eec:	30000315 	stw	zero,12(r6)
 1000ef0:	0005883a 	mov	r2,zero
 1000ef4:	dfc01517 	ldw	ra,84(sp)
 1000ef8:	df001417 	ldw	fp,80(sp)
 1000efc:	ddc01317 	ldw	r23,76(sp)
 1000f00:	dd801217 	ldw	r22,72(sp)
 1000f04:	dd401117 	ldw	r21,68(sp)
 1000f08:	dd001017 	ldw	r20,64(sp)
 1000f0c:	dcc00f17 	ldw	r19,60(sp)
 1000f10:	dc800e17 	ldw	r18,56(sp)
 1000f14:	dc400d17 	ldw	r17,52(sp)
 1000f18:	dc000c17 	ldw	r16,48(sp)
 1000f1c:	dec01604 	addi	sp,sp,88
 1000f20:	f800283a 	ret
 1000f24:	200d883a 	mov	r6,r4
 1000f28:	280f883a 	mov	r7,r5
 1000f2c:	1004aa00 	call	1004aa0 <__subdf3>
 1000f30:	80800215 	stw	r2,8(r16)
 1000f34:	80800015 	stw	r2,0(r16)
 1000f38:	80c00315 	stw	r3,12(r16)
 1000f3c:	80c00115 	stw	r3,4(r16)
 1000f40:	0005883a 	mov	r2,zero
 1000f44:	003feb06 	br	1000ef4 <__ieee754_rem_pio2+0x240>
 1000f48:	01cf7474 	movhi	r7,15825
 1000f4c:	9009883a 	mov	r4,r18
 1000f50:	39ed1844 	addi	r7,r7,-19359
 1000f54:	01869834 	movhi	r6,6752
 1000f58:	180b883a 	mov	r5,r3
 1000f5c:	1004aa00 	call	1004aa0 <__subdf3>
 1000f60:	018b80f4 	movhi	r6,11779
 1000f64:	01cee8f4 	movhi	r7,15267
 1000f68:	319c1cc4 	addi	r6,r6,28787
 1000f6c:	39c66284 	addi	r7,r7,6538
 1000f70:	1009883a 	mov	r4,r2
 1000f74:	180b883a 	mov	r5,r3
 1000f78:	1025883a 	mov	r18,r2
 1000f7c:	1823883a 	mov	r17,r3
 1000f80:	1004aa00 	call	1004aa0 <__subdf3>
 1000f84:	100d883a 	mov	r6,r2
 1000f88:	180f883a 	mov	r7,r3
 1000f8c:	9009883a 	mov	r4,r18
 1000f90:	880b883a 	mov	r5,r17
 1000f94:	80800015 	stw	r2,0(r16)
 1000f98:	80c00115 	stw	r3,4(r16)
 1000f9c:	1004aa00 	call	1004aa0 <__subdf3>
 1000fa0:	018b80f4 	movhi	r6,11779
 1000fa4:	01cee8f4 	movhi	r7,15267
 1000fa8:	319c1cc4 	addi	r6,r6,28787
 1000fac:	39c66284 	addi	r7,r7,6538
 1000fb0:	003f7306 	br	1000d80 <__ieee754_rem_pio2+0xcc>
 1000fb4:	10029280 	call	1002928 <fabs>
 1000fb8:	019b72b4 	movhi	r6,28106
 1000fbc:	01cff934 	movhi	r7,16356
 1000fc0:	31b220c4 	addi	r6,r6,-14205
 1000fc4:	39d7cc04 	addi	r7,r7,24368
 1000fc8:	1009883a 	mov	r4,r2
 1000fcc:	180b883a 	mov	r5,r3
 1000fd0:	102d883a 	mov	r22,r2
 1000fd4:	182b883a 	mov	r21,r3
 1000fd8:	10042340 	call	1004234 <__muldf3>
 1000fdc:	000d883a 	mov	r6,zero
 1000fe0:	01cff834 	movhi	r7,16352
 1000fe4:	1009883a 	mov	r4,r2
 1000fe8:	180b883a 	mov	r5,r3
 1000fec:	10038240 	call	1003824 <__adddf3>
 1000ff0:	180b883a 	mov	r5,r3
 1000ff4:	1009883a 	mov	r4,r2
 1000ff8:	100539c0 	call	100539c <__fixdfsi>
 1000ffc:	1009883a 	mov	r4,r2
 1001000:	1025883a 	mov	r18,r2
 1001004:	100541c0 	call	100541c <__floatsidf>
 1001008:	01cffe74 	movhi	r7,16377
 100100c:	39c87ec4 	addi	r7,r7,8699
 1001010:	01951034 	movhi	r6,21568
 1001014:	1009883a 	mov	r4,r2
 1001018:	180b883a 	mov	r5,r3
 100101c:	1029883a 	mov	r20,r2
 1001020:	1827883a 	mov	r19,r3
 1001024:	10042340 	call	1004234 <__muldf3>
 1001028:	b009883a 	mov	r4,r22
 100102c:	a80b883a 	mov	r5,r21
 1001030:	100d883a 	mov	r6,r2
 1001034:	180f883a 	mov	r7,r3
 1001038:	1004aa00 	call	1004aa0 <__subdf3>
 100103c:	018698b4 	movhi	r6,6754
 1001040:	01cf7474 	movhi	r7,15825
 1001044:	a009883a 	mov	r4,r20
 1001048:	3198cc44 	addi	r6,r6,25393
 100104c:	39ed1844 	addi	r7,r7,-19359
 1001050:	980b883a 	mov	r5,r19
 1001054:	1039883a 	mov	fp,r2
 1001058:	d8c00815 	stw	r3,32(sp)
 100105c:	10042340 	call	1004234 <__muldf3>
 1001060:	010007c4 	movi	r4,31
 1001064:	e017883a 	mov	r11,fp
 1001068:	da800817 	ldw	r10,32(sp)
 100106c:	102d883a 	mov	r22,r2
 1001070:	182b883a 	mov	r21,r3
 1001074:	24802816 	blt	r4,r18,1001118 <__ieee754_rem_pio2+0x464>
 1001078:	913fffc4 	addi	r4,r18,-1
 100107c:	2109883a 	add	r4,r4,r4
 1001080:	01404034 	movhi	r5,256
 1001084:	2109883a 	add	r4,r4,r4
 1001088:	29588a04 	addi	r5,r5,25128
 100108c:	2909883a 	add	r4,r5,r4
 1001090:	21000017 	ldw	r4,0(r4)
 1001094:	b9002026 	beq	r23,r4,1001118 <__ieee754_rem_pio2+0x464>
 1001098:	100d883a 	mov	r6,r2
 100109c:	180f883a 	mov	r7,r3
 10010a0:	e009883a 	mov	r4,fp
 10010a4:	500b883a 	mov	r5,r10
 10010a8:	da800b15 	stw	r10,44(sp)
 10010ac:	df000a15 	stw	fp,40(sp)
 10010b0:	1004aa00 	call	1004aa0 <__subdf3>
 10010b4:	da800b17 	ldw	r10,44(sp)
 10010b8:	dac00a17 	ldw	r11,40(sp)
 10010bc:	1019883a 	mov	r12,r2
 10010c0:	1813883a 	mov	r9,r3
 10010c4:	80800015 	stw	r2,0(r16)
 10010c8:	80c00115 	stw	r3,4(r16)
 10010cc:	600d883a 	mov	r6,r12
 10010d0:	480f883a 	mov	r7,r9
 10010d4:	5809883a 	mov	r4,r11
 10010d8:	500b883a 	mov	r5,r10
 10010dc:	da400b15 	stw	r9,44(sp)
 10010e0:	db000a15 	stw	r12,40(sp)
 10010e4:	1004aa00 	call	1004aa0 <__subdf3>
 10010e8:	b00d883a 	mov	r6,r22
 10010ec:	a80f883a 	mov	r7,r21
 10010f0:	1009883a 	mov	r4,r2
 10010f4:	180b883a 	mov	r5,r3
 10010f8:	1004aa00 	call	1004aa0 <__subdf3>
 10010fc:	80800215 	stw	r2,8(r16)
 1001100:	80c00315 	stw	r3,12(r16)
 1001104:	da400b17 	ldw	r9,44(sp)
 1001108:	db000a17 	ldw	r12,40(sp)
 100110c:	88009f16 	blt	r17,zero,100138c <__ieee754_rem_pio2+0x6d8>
 1001110:	9005883a 	mov	r2,r18
 1001114:	003f7706 	br	1000ef4 <__ieee754_rem_pio2+0x240>
 1001118:	d9400817 	ldw	r5,32(sp)
 100111c:	100d883a 	mov	r6,r2
 1001120:	180f883a 	mov	r7,r3
 1001124:	e009883a 	mov	r4,fp
 1001128:	da800b15 	stw	r10,44(sp)
 100112c:	dac00a15 	stw	r11,40(sp)
 1001130:	1004aa00 	call	1004aa0 <__subdf3>
 1001134:	1019883a 	mov	r12,r2
 1001138:	1804d53a 	srli	r2,r3,20
 100113c:	b811d53a 	srai	r8,r23,20
 1001140:	1813883a 	mov	r9,r3
 1001144:	1081ffcc 	andi	r2,r2,2047
 1001148:	80c00115 	stw	r3,4(r16)
 100114c:	83000015 	stw	r12,0(r16)
 1001150:	4085c83a 	sub	r2,r8,r2
 1001154:	00c00404 	movi	r3,16
 1001158:	da800b17 	ldw	r10,44(sp)
 100115c:	dac00a17 	ldw	r11,40(sp)
 1001160:	18bfda0e 	bge	r3,r2,10010cc <__ieee754_rem_pio2+0x418>
 1001164:	01cf7474 	movhi	r7,15825
 1001168:	39ed1844 	addi	r7,r7,-19359
 100116c:	01869834 	movhi	r6,6752
 1001170:	a009883a 	mov	r4,r20
 1001174:	980b883a 	mov	r5,r19
 1001178:	da000a15 	stw	r8,40(sp)
 100117c:	10042340 	call	1004234 <__muldf3>
 1001180:	d9400817 	ldw	r5,32(sp)
 1001184:	100d883a 	mov	r6,r2
 1001188:	180f883a 	mov	r7,r3
 100118c:	e009883a 	mov	r4,fp
 1001190:	102d883a 	mov	r22,r2
 1001194:	182b883a 	mov	r21,r3
 1001198:	1004aa00 	call	1004aa0 <__subdf3>
 100119c:	d9400817 	ldw	r5,32(sp)
 10011a0:	100d883a 	mov	r6,r2
 10011a4:	180f883a 	mov	r7,r3
 10011a8:	e009883a 	mov	r4,fp
 10011ac:	182f883a 	mov	r23,r3
 10011b0:	d8800915 	stw	r2,36(sp)
 10011b4:	1004aa00 	call	1004aa0 <__subdf3>
 10011b8:	b00d883a 	mov	r6,r22
 10011bc:	a80f883a 	mov	r7,r21
 10011c0:	1009883a 	mov	r4,r2
 10011c4:	180b883a 	mov	r5,r3
 10011c8:	1004aa00 	call	1004aa0 <__subdf3>
 10011cc:	018b80f4 	movhi	r6,11779
 10011d0:	01cee8f4 	movhi	r7,15267
 10011d4:	319c1cc4 	addi	r6,r6,28787
 10011d8:	39c66284 	addi	r7,r7,6538
 10011dc:	a009883a 	mov	r4,r20
 10011e0:	980b883a 	mov	r5,r19
 10011e4:	102d883a 	mov	r22,r2
 10011e8:	182b883a 	mov	r21,r3
 10011ec:	10042340 	call	1004234 <__muldf3>
 10011f0:	b00d883a 	mov	r6,r22
 10011f4:	a80f883a 	mov	r7,r21
 10011f8:	1009883a 	mov	r4,r2
 10011fc:	180b883a 	mov	r5,r3
 1001200:	1004aa00 	call	1004aa0 <__subdf3>
 1001204:	d9000917 	ldw	r4,36(sp)
 1001208:	100d883a 	mov	r6,r2
 100120c:	180f883a 	mov	r7,r3
 1001210:	b80b883a 	mov	r5,r23
 1001214:	102d883a 	mov	r22,r2
 1001218:	182b883a 	mov	r21,r3
 100121c:	1004aa00 	call	1004aa0 <__subdf3>
 1001220:	1019883a 	mov	r12,r2
 1001224:	1804d53a 	srli	r2,r3,20
 1001228:	da000a17 	ldw	r8,40(sp)
 100122c:	83000015 	stw	r12,0(r16)
 1001230:	1081ffcc 	andi	r2,r2,2047
 1001234:	4091c83a 	sub	r8,r8,r2
 1001238:	80c00115 	stw	r3,4(r16)
 100123c:	00800c44 	movi	r2,49
 1001240:	1813883a 	mov	r9,r3
 1001244:	1200730e 	bge	r2,r8,1001414 <__ieee754_rem_pio2+0x760>
 1001248:	01cee8f4 	movhi	r7,15267
 100124c:	39c66284 	addi	r7,r7,6538
 1001250:	018b8034 	movhi	r6,11776
 1001254:	a009883a 	mov	r4,r20
 1001258:	980b883a 	mov	r5,r19
 100125c:	10042340 	call	1004234 <__muldf3>
 1001260:	d9000917 	ldw	r4,36(sp)
 1001264:	100d883a 	mov	r6,r2
 1001268:	180f883a 	mov	r7,r3
 100126c:	b80b883a 	mov	r5,r23
 1001270:	102d883a 	mov	r22,r2
 1001274:	182b883a 	mov	r21,r3
 1001278:	1004aa00 	call	1004aa0 <__subdf3>
 100127c:	d9000917 	ldw	r4,36(sp)
 1001280:	100d883a 	mov	r6,r2
 1001284:	180f883a 	mov	r7,r3
 1001288:	b80b883a 	mov	r5,r23
 100128c:	d8c00b15 	stw	r3,44(sp)
 1001290:	d8800a15 	stw	r2,40(sp)
 1001294:	1004aa00 	call	1004aa0 <__subdf3>
 1001298:	b00d883a 	mov	r6,r22
 100129c:	a80f883a 	mov	r7,r21
 10012a0:	1009883a 	mov	r4,r2
 10012a4:	180b883a 	mov	r5,r3
 10012a8:	1004aa00 	call	1004aa0 <__subdf3>
 10012ac:	01894834 	movhi	r6,9504
 10012b0:	01ce5f34 	movhi	r7,14716
 10012b4:	31927044 	addi	r6,r6,18881
 10012b8:	39e0e684 	addi	r7,r7,-31846
 10012bc:	a009883a 	mov	r4,r20
 10012c0:	980b883a 	mov	r5,r19
 10012c4:	102d883a 	mov	r22,r2
 10012c8:	182b883a 	mov	r21,r3
 10012cc:	10042340 	call	1004234 <__muldf3>
 10012d0:	b00d883a 	mov	r6,r22
 10012d4:	a80f883a 	mov	r7,r21
 10012d8:	1009883a 	mov	r4,r2
 10012dc:	180b883a 	mov	r5,r3
 10012e0:	1004aa00 	call	1004aa0 <__subdf3>
 10012e4:	dac00a17 	ldw	r11,40(sp)
 10012e8:	da800b17 	ldw	r10,44(sp)
 10012ec:	102d883a 	mov	r22,r2
 10012f0:	182b883a 	mov	r21,r3
 10012f4:	100d883a 	mov	r6,r2
 10012f8:	180f883a 	mov	r7,r3
 10012fc:	5809883a 	mov	r4,r11
 1001300:	500b883a 	mov	r5,r10
 1001304:	003f6a06 	br	10010b0 <__ieee754_rem_pio2+0x3fc>
 1001308:	10038240 	call	1003824 <__adddf3>
 100130c:	1025883a 	mov	r18,r2
 1001310:	008ffe74 	movhi	r2,16377
 1001314:	10887ec4 	addi	r2,r2,8699
 1001318:	1823883a 	mov	r17,r3
 100131c:	b8802226 	beq	r23,r2,10013a8 <__ieee754_rem_pio2+0x6f4>
 1001320:	018698b4 	movhi	r6,6754
 1001324:	01cf7474 	movhi	r7,15825
 1001328:	3198cc44 	addi	r6,r6,25393
 100132c:	39ed1844 	addi	r7,r7,-19359
 1001330:	9009883a 	mov	r4,r18
 1001334:	180b883a 	mov	r5,r3
 1001338:	10038240 	call	1003824 <__adddf3>
 100133c:	100d883a 	mov	r6,r2
 1001340:	180f883a 	mov	r7,r3
 1001344:	9009883a 	mov	r4,r18
 1001348:	880b883a 	mov	r5,r17
 100134c:	80800015 	stw	r2,0(r16)
 1001350:	80c00115 	stw	r3,4(r16)
 1001354:	1004aa00 	call	1004aa0 <__subdf3>
 1001358:	018698b4 	movhi	r6,6754
 100135c:	01cf7474 	movhi	r7,15825
 1001360:	3198cc44 	addi	r6,r6,25393
 1001364:	39ed1844 	addi	r7,r7,-19359
 1001368:	1009883a 	mov	r4,r2
 100136c:	180b883a 	mov	r5,r3
 1001370:	10038240 	call	1003824 <__adddf3>
 1001374:	80800215 	stw	r2,8(r16)
 1001378:	80c00315 	stw	r3,12(r16)
 100137c:	00bfffc4 	movi	r2,-1
 1001380:	003edc06 	br	1000ef4 <__ieee754_rem_pio2+0x240>
 1001384:	01c000c4 	movi	r7,3
 1001388:	003ec306 	br	1000e98 <__ieee754_rem_pio2+0x1e4>
 100138c:	4a60003c 	xorhi	r9,r9,32768
 1001390:	18e0003c 	xorhi	r3,r3,32768
 1001394:	83000015 	stw	r12,0(r16)
 1001398:	82400115 	stw	r9,4(r16)
 100139c:	80c00315 	stw	r3,12(r16)
 10013a0:	0485c83a 	sub	r2,zero,r18
 10013a4:	003ed306 	br	1000ef4 <__ieee754_rem_pio2+0x240>
 10013a8:	01cf7474 	movhi	r7,15825
 10013ac:	9009883a 	mov	r4,r18
 10013b0:	39ed1844 	addi	r7,r7,-19359
 10013b4:	01869834 	movhi	r6,6752
 10013b8:	180b883a 	mov	r5,r3
 10013bc:	10038240 	call	1003824 <__adddf3>
 10013c0:	018b80f4 	movhi	r6,11779
 10013c4:	01cee8f4 	movhi	r7,15267
 10013c8:	319c1cc4 	addi	r6,r6,28787
 10013cc:	39c66284 	addi	r7,r7,6538
 10013d0:	1009883a 	mov	r4,r2
 10013d4:	180b883a 	mov	r5,r3
 10013d8:	1025883a 	mov	r18,r2
 10013dc:	1823883a 	mov	r17,r3
 10013e0:	10038240 	call	1003824 <__adddf3>
 10013e4:	100d883a 	mov	r6,r2
 10013e8:	180f883a 	mov	r7,r3
 10013ec:	9009883a 	mov	r4,r18
 10013f0:	880b883a 	mov	r5,r17
 10013f4:	80800015 	stw	r2,0(r16)
 10013f8:	80c00115 	stw	r3,4(r16)
 10013fc:	1004aa00 	call	1004aa0 <__subdf3>
 1001400:	018b80f4 	movhi	r6,11779
 1001404:	01cee8f4 	movhi	r7,15267
 1001408:	319c1cc4 	addi	r6,r6,28787
 100140c:	39c66284 	addi	r7,r7,6538
 1001410:	003fd506 	br	1001368 <__ieee754_rem_pio2+0x6b4>
 1001414:	dac00917 	ldw	r11,36(sp)
 1001418:	b815883a 	mov	r10,r23
 100141c:	003f2b06 	br	10010cc <__ieee754_rem_pio2+0x418>

01001420 <__kernel_cos>:
 1001420:	defff304 	addi	sp,sp,-52
 1001424:	dc000315 	stw	r16,12(sp)
 1001428:	04200034 	movhi	r16,32768
 100142c:	843fffc4 	addi	r16,r16,-1
 1001430:	008f9034 	movhi	r2,15936
 1001434:	df000b15 	stw	fp,44(sp)
 1001438:	ddc00a15 	stw	r23,40(sp)
 100143c:	dd800915 	stw	r22,36(sp)
 1001440:	dcc00615 	stw	r19,24(sp)
 1001444:	dfc00c15 	stw	ra,48(sp)
 1001448:	dd400815 	stw	r21,32(sp)
 100144c:	dd000715 	stw	r20,28(sp)
 1001450:	dc800515 	stw	r18,20(sp)
 1001454:	dc400415 	stw	r17,16(sp)
 1001458:	2c20703a 	and	r16,r5,r16
 100145c:	10bfffc4 	addi	r2,r2,-1
 1001460:	2827883a 	mov	r19,r5
 1001464:	202d883a 	mov	r22,r4
 1001468:	302f883a 	mov	r23,r6
 100146c:	3839883a 	mov	fp,r7
 1001470:	14007516 	blt	r2,r16,1001648 <__kernel_cos+0x228>
 1001474:	100539c0 	call	100539c <__fixdfsi>
 1001478:	10010f26 	beq	r2,zero,10018b8 <__kernel_cos+0x498>
 100147c:	b00d883a 	mov	r6,r22
 1001480:	980f883a 	mov	r7,r19
 1001484:	b009883a 	mov	r4,r22
 1001488:	980b883a 	mov	r5,r19
 100148c:	10042340 	call	1004234 <__muldf3>
 1001490:	01afa234 	movhi	r6,48776
 1001494:	01ef6a74 	movhi	r7,48553
 1001498:	318e3504 	addi	r6,r6,14548
 100149c:	39feba44 	addi	r7,r7,-1303
 10014a0:	1009883a 	mov	r4,r2
 10014a4:	180b883a 	mov	r5,r3
 10014a8:	102b883a 	mov	r21,r2
 10014ac:	1829883a 	mov	r20,r3
 10014b0:	10042340 	call	1004234 <__muldf3>
 10014b4:	01af6d74 	movhi	r6,48565
 10014b8:	01cf88b4 	movhi	r7,15906
 10014bc:	31ac7104 	addi	r6,r6,-20028
 10014c0:	39fba784 	addi	r7,r7,-4450
 10014c4:	1009883a 	mov	r4,r2
 10014c8:	180b883a 	mov	r5,r3
 10014cc:	10038240 	call	1003824 <__adddf3>
 10014d0:	a80d883a 	mov	r6,r21
 10014d4:	a00f883a 	mov	r7,r20
 10014d8:	1009883a 	mov	r4,r2
 10014dc:	180b883a 	mov	r5,r3
 10014e0:	10042340 	call	1004234 <__muldf3>
 10014e4:	01a02734 	movhi	r6,32924
 10014e8:	01cfa4b4 	movhi	r7,16018
 10014ec:	3194ab44 	addi	r6,r6,21165
 10014f0:	39df93c4 	addi	r7,r7,32335
 10014f4:	1009883a 	mov	r4,r2
 10014f8:	180b883a 	mov	r5,r3
 10014fc:	1004aa00 	call	1004aa0 <__subdf3>
 1001500:	a80d883a 	mov	r6,r21
 1001504:	a00f883a 	mov	r7,r20
 1001508:	1009883a 	mov	r4,r2
 100150c:	180b883a 	mov	r5,r3
 1001510:	10042340 	call	1004234 <__muldf3>
 1001514:	018672f4 	movhi	r6,6603
 1001518:	01cfbeb4 	movhi	r7,16122
 100151c:	31856404 	addi	r6,r6,5520
 1001520:	39c06804 	addi	r7,r7,416
 1001524:	1009883a 	mov	r4,r2
 1001528:	180b883a 	mov	r5,r3
 100152c:	10038240 	call	1003824 <__adddf3>
 1001530:	a80d883a 	mov	r6,r21
 1001534:	a00f883a 	mov	r7,r20
 1001538:	1009883a 	mov	r4,r2
 100153c:	180b883a 	mov	r5,r3
 1001540:	10042340 	call	1004234 <__muldf3>
 1001544:	0185b074 	movhi	r6,5825
 1001548:	01cfd5f4 	movhi	r7,16215
 100154c:	31945dc4 	addi	r6,r6,20855
 1001550:	39f05b04 	addi	r7,r7,-16020
 1001554:	1009883a 	mov	r4,r2
 1001558:	180b883a 	mov	r5,r3
 100155c:	1004aa00 	call	1004aa0 <__subdf3>
 1001560:	a80d883a 	mov	r6,r21
 1001564:	a00f883a 	mov	r7,r20
 1001568:	1009883a 	mov	r4,r2
 100156c:	180b883a 	mov	r5,r3
 1001570:	10042340 	call	1004234 <__muldf3>
 1001574:	01955574 	movhi	r6,21845
 1001578:	01cfe974 	movhi	r7,16293
 100157c:	31955304 	addi	r6,r6,21836
 1001580:	39d55544 	addi	r7,r7,21845
 1001584:	1009883a 	mov	r4,r2
 1001588:	180b883a 	mov	r5,r3
 100158c:	10038240 	call	1003824 <__adddf3>
 1001590:	a80d883a 	mov	r6,r21
 1001594:	a00f883a 	mov	r7,r20
 1001598:	1009883a 	mov	r4,r2
 100159c:	180b883a 	mov	r5,r3
 10015a0:	10042340 	call	1004234 <__muldf3>
 10015a4:	1017883a 	mov	r11,r2
 10015a8:	1815883a 	mov	r10,r3
 10015ac:	a809883a 	mov	r4,r21
 10015b0:	a00b883a 	mov	r5,r20
 10015b4:	000d883a 	mov	r6,zero
 10015b8:	01cff834 	movhi	r7,16352
 10015bc:	da800215 	stw	r10,8(sp)
 10015c0:	dac00115 	stw	r11,4(sp)
 10015c4:	10042340 	call	1004234 <__muldf3>
 10015c8:	dac00117 	ldw	r11,4(sp)
 10015cc:	da800217 	ldw	r10,8(sp)
 10015d0:	a809883a 	mov	r4,r21
 10015d4:	580d883a 	mov	r6,r11
 10015d8:	500f883a 	mov	r7,r10
 10015dc:	a00b883a 	mov	r5,r20
 10015e0:	1023883a 	mov	r17,r2
 10015e4:	1821883a 	mov	r16,r3
 10015e8:	10042340 	call	1004234 <__muldf3>
 10015ec:	b80d883a 	mov	r6,r23
 10015f0:	e00f883a 	mov	r7,fp
 10015f4:	b009883a 	mov	r4,r22
 10015f8:	980b883a 	mov	r5,r19
 10015fc:	1029883a 	mov	r20,r2
 1001600:	1825883a 	mov	r18,r3
 1001604:	10042340 	call	1004234 <__muldf3>
 1001608:	a009883a 	mov	r4,r20
 100160c:	900b883a 	mov	r5,r18
 1001610:	100d883a 	mov	r6,r2
 1001614:	180f883a 	mov	r7,r3
 1001618:	1004aa00 	call	1004aa0 <__subdf3>
 100161c:	8809883a 	mov	r4,r17
 1001620:	800b883a 	mov	r5,r16
 1001624:	100d883a 	mov	r6,r2
 1001628:	180f883a 	mov	r7,r3
 100162c:	1004aa00 	call	1004aa0 <__subdf3>
 1001630:	100d883a 	mov	r6,r2
 1001634:	180f883a 	mov	r7,r3
 1001638:	0009883a 	mov	r4,zero
 100163c:	014ffc34 	movhi	r5,16368
 1001640:	1004aa00 	call	1004aa0 <__subdf3>
 1001644:	00008b06 	br	1001874 <__kernel_cos+0x454>
 1001648:	200d883a 	mov	r6,r4
 100164c:	280f883a 	mov	r7,r5
 1001650:	10042340 	call	1004234 <__muldf3>
 1001654:	01afa234 	movhi	r6,48776
 1001658:	01ef6a74 	movhi	r7,48553
 100165c:	318e3504 	addi	r6,r6,14548
 1001660:	39feba44 	addi	r7,r7,-1303
 1001664:	1009883a 	mov	r4,r2
 1001668:	180b883a 	mov	r5,r3
 100166c:	1025883a 	mov	r18,r2
 1001670:	1823883a 	mov	r17,r3
 1001674:	10042340 	call	1004234 <__muldf3>
 1001678:	01af6d74 	movhi	r6,48565
 100167c:	01cf88b4 	movhi	r7,15906
 1001680:	31ac7104 	addi	r6,r6,-20028
 1001684:	39fba784 	addi	r7,r7,-4450
 1001688:	1009883a 	mov	r4,r2
 100168c:	180b883a 	mov	r5,r3
 1001690:	10038240 	call	1003824 <__adddf3>
 1001694:	900d883a 	mov	r6,r18
 1001698:	880f883a 	mov	r7,r17
 100169c:	1009883a 	mov	r4,r2
 10016a0:	180b883a 	mov	r5,r3
 10016a4:	10042340 	call	1004234 <__muldf3>
 10016a8:	01a02734 	movhi	r6,32924
 10016ac:	01cfa4b4 	movhi	r7,16018
 10016b0:	3194ab44 	addi	r6,r6,21165
 10016b4:	39df93c4 	addi	r7,r7,32335
 10016b8:	1009883a 	mov	r4,r2
 10016bc:	180b883a 	mov	r5,r3
 10016c0:	1004aa00 	call	1004aa0 <__subdf3>
 10016c4:	900d883a 	mov	r6,r18
 10016c8:	880f883a 	mov	r7,r17
 10016cc:	1009883a 	mov	r4,r2
 10016d0:	180b883a 	mov	r5,r3
 10016d4:	10042340 	call	1004234 <__muldf3>
 10016d8:	018672f4 	movhi	r6,6603
 10016dc:	01cfbeb4 	movhi	r7,16122
 10016e0:	31856404 	addi	r6,r6,5520
 10016e4:	39c06804 	addi	r7,r7,416
 10016e8:	1009883a 	mov	r4,r2
 10016ec:	180b883a 	mov	r5,r3
 10016f0:	10038240 	call	1003824 <__adddf3>
 10016f4:	900d883a 	mov	r6,r18
 10016f8:	880f883a 	mov	r7,r17
 10016fc:	1009883a 	mov	r4,r2
 1001700:	180b883a 	mov	r5,r3
 1001704:	10042340 	call	1004234 <__muldf3>
 1001708:	0185b074 	movhi	r6,5825
 100170c:	01cfd5f4 	movhi	r7,16215
 1001710:	31945dc4 	addi	r6,r6,20855
 1001714:	39f05b04 	addi	r7,r7,-16020
 1001718:	1009883a 	mov	r4,r2
 100171c:	180b883a 	mov	r5,r3
 1001720:	1004aa00 	call	1004aa0 <__subdf3>
 1001724:	900d883a 	mov	r6,r18
 1001728:	880f883a 	mov	r7,r17
 100172c:	1009883a 	mov	r4,r2
 1001730:	180b883a 	mov	r5,r3
 1001734:	10042340 	call	1004234 <__muldf3>
 1001738:	01955574 	movhi	r6,21845
 100173c:	01cfe974 	movhi	r7,16293
 1001740:	31955304 	addi	r6,r6,21836
 1001744:	39d55544 	addi	r7,r7,21845
 1001748:	1009883a 	mov	r4,r2
 100174c:	180b883a 	mov	r5,r3
 1001750:	10038240 	call	1003824 <__adddf3>
 1001754:	900d883a 	mov	r6,r18
 1001758:	880f883a 	mov	r7,r17
 100175c:	1009883a 	mov	r4,r2
 1001760:	180b883a 	mov	r5,r3
 1001764:	10042340 	call	1004234 <__muldf3>
 1001768:	1013883a 	mov	r9,r2
 100176c:	1017883a 	mov	r11,r2
 1001770:	008ff4f4 	movhi	r2,16339
 1001774:	108ccc84 	addi	r2,r2,13106
 1001778:	1811883a 	mov	r8,r3
 100177c:	902b883a 	mov	r21,r18
 1001780:	8829883a 	mov	r20,r17
 1001784:	1815883a 	mov	r10,r3
 1001788:	143f880e 	bge	r2,r16,10015ac <__kernel_cos+0x18c>
 100178c:	008ffa74 	movhi	r2,16361
 1001790:	14004416 	blt	r2,r16,10018a4 <__kernel_cos+0x484>
 1001794:	00bff834 	movhi	r2,65504
 1001798:	80a1883a 	add	r16,r16,r2
 100179c:	000d883a 	mov	r6,zero
 10017a0:	800f883a 	mov	r7,r16
 10017a4:	0009883a 	mov	r4,zero
 10017a8:	014ffc34 	movhi	r5,16368
 10017ac:	da400115 	stw	r9,4(sp)
 10017b0:	d8c00215 	stw	r3,8(sp)
 10017b4:	1004aa00 	call	1004aa0 <__subdf3>
 10017b8:	da000217 	ldw	r8,8(sp)
 10017bc:	da400117 	ldw	r9,4(sp)
 10017c0:	102b883a 	mov	r21,r2
 10017c4:	d8c00015 	stw	r3,0(sp)
 10017c8:	9009883a 	mov	r4,r18
 10017cc:	880b883a 	mov	r5,r17
 10017d0:	000d883a 	mov	r6,zero
 10017d4:	01cff834 	movhi	r7,16352
 10017d8:	da000215 	stw	r8,8(sp)
 10017dc:	da400115 	stw	r9,4(sp)
 10017e0:	10042340 	call	1004234 <__muldf3>
 10017e4:	800f883a 	mov	r7,r16
 10017e8:	000d883a 	mov	r6,zero
 10017ec:	1009883a 	mov	r4,r2
 10017f0:	180b883a 	mov	r5,r3
 10017f4:	1004aa00 	call	1004aa0 <__subdf3>
 10017f8:	da400117 	ldw	r9,4(sp)
 10017fc:	da000217 	ldw	r8,8(sp)
 1001800:	9009883a 	mov	r4,r18
 1001804:	480d883a 	mov	r6,r9
 1001808:	400f883a 	mov	r7,r8
 100180c:	880b883a 	mov	r5,r17
 1001810:	1029883a 	mov	r20,r2
 1001814:	1821883a 	mov	r16,r3
 1001818:	10042340 	call	1004234 <__muldf3>
 100181c:	b80d883a 	mov	r6,r23
 1001820:	e00f883a 	mov	r7,fp
 1001824:	b009883a 	mov	r4,r22
 1001828:	980b883a 	mov	r5,r19
 100182c:	1025883a 	mov	r18,r2
 1001830:	1823883a 	mov	r17,r3
 1001834:	10042340 	call	1004234 <__muldf3>
 1001838:	100d883a 	mov	r6,r2
 100183c:	180f883a 	mov	r7,r3
 1001840:	9009883a 	mov	r4,r18
 1001844:	880b883a 	mov	r5,r17
 1001848:	1004aa00 	call	1004aa0 <__subdf3>
 100184c:	100d883a 	mov	r6,r2
 1001850:	180f883a 	mov	r7,r3
 1001854:	a009883a 	mov	r4,r20
 1001858:	800b883a 	mov	r5,r16
 100185c:	1004aa00 	call	1004aa0 <__subdf3>
 1001860:	d9400017 	ldw	r5,0(sp)
 1001864:	100d883a 	mov	r6,r2
 1001868:	180f883a 	mov	r7,r3
 100186c:	a809883a 	mov	r4,r21
 1001870:	1004aa00 	call	1004aa0 <__subdf3>
 1001874:	dfc00c17 	ldw	ra,48(sp)
 1001878:	df000b17 	ldw	fp,44(sp)
 100187c:	ddc00a17 	ldw	r23,40(sp)
 1001880:	dd800917 	ldw	r22,36(sp)
 1001884:	dd400817 	ldw	r21,32(sp)
 1001888:	dd000717 	ldw	r20,28(sp)
 100188c:	dcc00617 	ldw	r19,24(sp)
 1001890:	dc800517 	ldw	r18,20(sp)
 1001894:	dc400417 	ldw	r17,16(sp)
 1001898:	dc000317 	ldw	r16,12(sp)
 100189c:	dec00d04 	addi	sp,sp,52
 10018a0:	f800283a 	ret
 10018a4:	008ff9f4 	movhi	r2,16359
 10018a8:	002b883a 	mov	r21,zero
 10018ac:	d8800015 	stw	r2,0(sp)
 10018b0:	040ff4b4 	movhi	r16,16338
 10018b4:	003fc406 	br	10017c8 <__kernel_cos+0x3a8>
 10018b8:	0005883a 	mov	r2,zero
 10018bc:	00cffc34 	movhi	r3,16368
 10018c0:	003fec06 	br	1001874 <__kernel_cos+0x454>

010018c4 <__kernel_rem_pio2>:
 10018c4:	deff5a04 	addi	sp,sp,-664
 10018c8:	da00a617 	ldw	r8,664(sp)
 10018cc:	00c04034 	movhi	r3,256
 10018d0:	18d8fc04 	addi	r3,r3,25584
 10018d4:	4205883a 	add	r2,r8,r8
 10018d8:	1085883a 	add	r2,r2,r2
 10018dc:	1885883a 	add	r2,r3,r2
 10018e0:	d9008e15 	stw	r4,568(sp)
 10018e4:	d9408f15 	stw	r5,572(sp)
 10018e8:	313fff44 	addi	r4,r6,-3
 10018ec:	01400604 	movi	r5,24
 10018f0:	dd80a215 	stw	r22,648(sp)
 10018f4:	dc009c15 	stw	r16,624(sp)
 10018f8:	dfc0a515 	stw	ra,660(sp)
 10018fc:	df00a415 	stw	fp,656(sp)
 1001900:	ddc0a315 	stw	r23,652(sp)
 1001904:	dd40a115 	stw	r21,644(sp)
 1001908:	dd00a015 	stw	r20,640(sp)
 100190c:	dcc09f15 	stw	r19,636(sp)
 1001910:	dc809e15 	stw	r18,632(sp)
 1001914:	dc409d15 	stw	r17,628(sp)
 1001918:	3021883a 	mov	r16,r6
 100191c:	d9c09315 	stw	r7,588(sp)
 1001920:	15800017 	ldw	r22,0(r2)
 1001924:	1002ce00 	call	1002ce0 <__divsi3>
 1001928:	da009317 	ldw	r8,588(sp)
 100192c:	d8809215 	stw	r2,584(sp)
 1001930:	423fffc4 	addi	r8,r8,-1
 1001934:	da008d15 	stw	r8,564(sp)
 1001938:	10033d16 	blt	r2,zero,1002630 <__kernel_rem_pio2+0xd6c>
 100193c:	da009217 	ldw	r8,584(sp)
 1001940:	017ffa04 	movi	r5,-24
 1001944:	42000044 	addi	r8,r8,1
 1001948:	4009883a 	mov	r4,r8
 100194c:	da009515 	stw	r8,596(sp)
 1001950:	1002e940 	call	1002e94 <__mulsi3>
 1001954:	da008d17 	ldw	r8,564(sp)
 1001958:	1421883a 	add	r16,r2,r16
 100195c:	d8809217 	ldw	r2,584(sp)
 1001960:	b207883a 	add	r3,r22,r8
 1001964:	dc009015 	stw	r16,576(sp)
 1001968:	1223c83a 	sub	r17,r2,r8
 100196c:	18001016 	blt	r3,zero,10019b0 <__kernel_rem_pio2+0xec>
 1001970:	da00a717 	ldw	r8,668(sp)
 1001974:	8c65883a 	add	r18,r17,r17
 1001978:	94a5883a 	add	r18,r18,r18
 100197c:	1c47883a 	add	r3,r3,r17
 1001980:	dcc05004 	addi	r19,sp,320
 1001984:	44a5883a 	add	r18,r8,r18
 1001988:	1c000044 	addi	r16,r3,1
 100198c:	88015316 	blt	r17,zero,1001edc <__kernel_rem_pio2+0x618>
 1001990:	91000017 	ldw	r4,0(r18)
 1001994:	100541c0 	call	100541c <__floatsidf>
 1001998:	98800015 	stw	r2,0(r19)
 100199c:	98c00115 	stw	r3,4(r19)
 10019a0:	8c400044 	addi	r17,r17,1
 10019a4:	9cc00204 	addi	r19,r19,8
 10019a8:	94800104 	addi	r18,r18,4
 10019ac:	8c3ff71e 	bne	r17,r16,100198c <__kernel_rem_pio2+0xc8>
 10019b0:	b0002816 	blt	r22,zero,1001a54 <__kernel_rem_pio2+0x190>
 10019b4:	da008d17 	ldw	r8,564(sp)
 10019b8:	b4c00044 	addi	r19,r22,1
 10019bc:	982690fa 	slli	r19,r19,3
 10019c0:	402490fa 	slli	r18,r8,3
 10019c4:	da008e17 	ldw	r8,568(sp)
 10019c8:	d8805004 	addi	r2,sp,320
 10019cc:	94000204 	addi	r16,r18,8
 10019d0:	d823883a 	mov	r17,sp
 10019d4:	14a5883a 	add	r18,r2,r18
 10019d8:	dcef883a 	add	r23,sp,r19
 10019dc:	4421883a 	add	r16,r8,r16
 10019e0:	dd809115 	stw	r22,580(sp)
 10019e4:	4039883a 	mov	fp,r8
 10019e8:	da008d17 	ldw	r8,564(sp)
 10019ec:	40016016 	blt	r8,zero,1001f70 <__kernel_rem_pio2+0x6ac>
 10019f0:	e027883a 	mov	r19,fp
 10019f4:	9029883a 	mov	r20,r18
 10019f8:	002d883a 	mov	r22,zero
 10019fc:	002b883a 	mov	r21,zero
 1001a00:	a1800017 	ldw	r6,0(r20)
 1001a04:	a1c00117 	ldw	r7,4(r20)
 1001a08:	99000017 	ldw	r4,0(r19)
 1001a0c:	99400117 	ldw	r5,4(r19)
 1001a10:	9cc00204 	addi	r19,r19,8
 1001a14:	a53ffe04 	addi	r20,r20,-8
 1001a18:	10042340 	call	1004234 <__muldf3>
 1001a1c:	b009883a 	mov	r4,r22
 1001a20:	a80b883a 	mov	r5,r21
 1001a24:	100d883a 	mov	r6,r2
 1001a28:	180f883a 	mov	r7,r3
 1001a2c:	10038240 	call	1003824 <__adddf3>
 1001a30:	102d883a 	mov	r22,r2
 1001a34:	182b883a 	mov	r21,r3
 1001a38:	9c3ff11e 	bne	r19,r16,1001a00 <__kernel_rem_pio2+0x13c>
 1001a3c:	8d800015 	stw	r22,0(r17)
 1001a40:	8d400115 	stw	r21,4(r17)
 1001a44:	8c400204 	addi	r17,r17,8
 1001a48:	94800204 	addi	r18,r18,8
 1001a4c:	8dffe61e 	bne	r17,r23,10019e8 <__kernel_rem_pio2+0x124>
 1001a50:	dd809117 	ldw	r22,580(sp)
 1001a54:	00d00034 	movhi	r3,16384
 1001a58:	da009317 	ldw	r8,588(sp)
 1001a5c:	18ffff84 	addi	r3,r3,-2
 1001a60:	b0c7883a 	add	r3,r22,r3
 1001a64:	18c7883a 	add	r3,r3,r3
 1001a68:	402090fa 	slli	r16,r8,3
 1001a6c:	18c7883a 	add	r3,r3,r3
 1001a70:	da007804 	addi	r8,sp,480
 1001a74:	40d1883a 	add	r8,r8,r3
 1001a78:	b0bfffc4 	addi	r2,r22,-1
 1001a7c:	da009615 	stw	r8,600(sp)
 1001a80:	da008e17 	ldw	r8,568(sp)
 1001a84:	1085883a 	add	r2,r2,r2
 1001a88:	1085883a 	add	r2,r2,r2
 1001a8c:	19000104 	addi	r4,r3,4
 1001a90:	d885883a 	add	r2,sp,r2
 1001a94:	4421883a 	add	r16,r8,r16
 1001a98:	da007804 	addi	r8,sp,480
 1001a9c:	4111883a 	add	r8,r8,r4
 1001aa0:	10807804 	addi	r2,r2,480
 1001aa4:	da009715 	stw	r8,604(sp)
 1001aa8:	b025883a 	mov	r18,r22
 1001aac:	d8809815 	stw	r2,608(sp)
 1001ab0:	dd809415 	stw	r22,592(sp)
 1001ab4:	900490fa 	slli	r2,r18,3
 1001ab8:	d885883a 	add	r2,sp,r2
 1001abc:	17000017 	ldw	fp,0(r2)
 1001ac0:	15400117 	ldw	r21,4(r2)
 1001ac4:	04802b0e 	bge	zero,r18,1001b74 <__kernel_rem_pio2+0x2b0>
 1001ac8:	00880034 	movhi	r2,8192
 1001acc:	10bfffc4 	addi	r2,r2,-1
 1001ad0:	90a9883a 	add	r20,r18,r2
 1001ad4:	a02890fa 	slli	r20,r20,3
 1001ad8:	dc407804 	addi	r17,sp,480
 1001adc:	dcfffe04 	addi	r19,sp,-8
 1001ae0:	dd29883a 	add	r20,sp,r20
 1001ae4:	000d883a 	mov	r6,zero
 1001ae8:	01cf9c34 	movhi	r7,15984
 1001aec:	e009883a 	mov	r4,fp
 1001af0:	a80b883a 	mov	r5,r21
 1001af4:	10042340 	call	1004234 <__muldf3>
 1001af8:	180b883a 	mov	r5,r3
 1001afc:	1009883a 	mov	r4,r2
 1001b00:	100539c0 	call	100539c <__fixdfsi>
 1001b04:	1009883a 	mov	r4,r2
 1001b08:	100541c0 	call	100541c <__floatsidf>
 1001b0c:	000d883a 	mov	r6,zero
 1001b10:	01d05c34 	movhi	r7,16752
 1001b14:	1009883a 	mov	r4,r2
 1001b18:	180b883a 	mov	r5,r3
 1001b1c:	102f883a 	mov	r23,r2
 1001b20:	182d883a 	mov	r22,r3
 1001b24:	10042340 	call	1004234 <__muldf3>
 1001b28:	100d883a 	mov	r6,r2
 1001b2c:	180f883a 	mov	r7,r3
 1001b30:	e009883a 	mov	r4,fp
 1001b34:	a80b883a 	mov	r5,r21
 1001b38:	1004aa00 	call	1004aa0 <__subdf3>
 1001b3c:	180b883a 	mov	r5,r3
 1001b40:	1009883a 	mov	r4,r2
 1001b44:	100539c0 	call	100539c <__fixdfsi>
 1001b48:	a1800017 	ldw	r6,0(r20)
 1001b4c:	a1c00117 	ldw	r7,4(r20)
 1001b50:	88800015 	stw	r2,0(r17)
 1001b54:	b809883a 	mov	r4,r23
 1001b58:	b00b883a 	mov	r5,r22
 1001b5c:	10038240 	call	1003824 <__adddf3>
 1001b60:	a53ffe04 	addi	r20,r20,-8
 1001b64:	1039883a 	mov	fp,r2
 1001b68:	182b883a 	mov	r21,r3
 1001b6c:	8c400104 	addi	r17,r17,4
 1001b70:	a4ffdc1e 	bne	r20,r19,1001ae4 <__kernel_rem_pio2+0x220>
 1001b74:	d9809017 	ldw	r6,576(sp)
 1001b78:	a80b883a 	mov	r5,r21
 1001b7c:	e009883a 	mov	r4,fp
 1001b80:	1002b280 	call	1002b28 <scalbn>
 1001b84:	000d883a 	mov	r6,zero
 1001b88:	01cff034 	movhi	r7,16320
 1001b8c:	1009883a 	mov	r4,r2
 1001b90:	180b883a 	mov	r5,r3
 1001b94:	1027883a 	mov	r19,r2
 1001b98:	1823883a 	mov	r17,r3
 1001b9c:	10042340 	call	1004234 <__muldf3>
 1001ba0:	1009883a 	mov	r4,r2
 1001ba4:	180b883a 	mov	r5,r3
 1001ba8:	100293c0 	call	100293c <floor>
 1001bac:	000d883a 	mov	r6,zero
 1001bb0:	01d00834 	movhi	r7,16416
 1001bb4:	1009883a 	mov	r4,r2
 1001bb8:	180b883a 	mov	r5,r3
 1001bbc:	10042340 	call	1004234 <__muldf3>
 1001bc0:	100d883a 	mov	r6,r2
 1001bc4:	180f883a 	mov	r7,r3
 1001bc8:	9809883a 	mov	r4,r19
 1001bcc:	880b883a 	mov	r5,r17
 1001bd0:	1004aa00 	call	1004aa0 <__subdf3>
 1001bd4:	180b883a 	mov	r5,r3
 1001bd8:	1009883a 	mov	r4,r2
 1001bdc:	1827883a 	mov	r19,r3
 1001be0:	1029883a 	mov	r20,r2
 1001be4:	100539c0 	call	100539c <__fixdfsi>
 1001be8:	1009883a 	mov	r4,r2
 1001bec:	1023883a 	mov	r17,r2
 1001bf0:	100541c0 	call	100541c <__floatsidf>
 1001bf4:	a009883a 	mov	r4,r20
 1001bf8:	100d883a 	mov	r6,r2
 1001bfc:	180f883a 	mov	r7,r3
 1001c00:	980b883a 	mov	r5,r19
 1001c04:	1004aa00 	call	1004aa0 <__subdf3>
 1001c08:	d9009017 	ldw	r4,576(sp)
 1001c0c:	1013883a 	mov	r9,r2
 1001c10:	102b883a 	mov	r21,r2
 1001c14:	1811883a 	mov	r8,r3
 1001c18:	0100b30e 	bge	zero,r4,1001ee8 <__kernel_rem_pio2+0x624>
 1001c1c:	90bfffc4 	addi	r2,r18,-1
 1001c20:	1085883a 	add	r2,r2,r2
 1001c24:	1085883a 	add	r2,r2,r2
 1001c28:	d885883a 	add	r2,sp,r2
 1001c2c:	10807804 	addi	r2,r2,480
 1001c30:	d9809017 	ldw	r6,576(sp)
 1001c34:	11400017 	ldw	r5,0(r2)
 1001c38:	01000604 	movi	r4,24
 1001c3c:	2189c83a 	sub	r4,r4,r6
 1001c40:	290dd83a 	sra	r6,r5,r4
 1001c44:	d9c09017 	ldw	r7,576(sp)
 1001c48:	04c005c4 	movi	r19,23
 1001c4c:	3108983a 	sll	r4,r6,r4
 1001c50:	99e7c83a 	sub	r19,r19,r7
 1001c54:	89a3883a 	add	r17,r17,r6
 1001c58:	2909c83a 	sub	r4,r5,r4
 1001c5c:	24e7d83a 	sra	r19,r4,r19
 1001c60:	11000015 	stw	r4,0(r2)
 1001c64:	04c02a0e 	bge	zero,r19,1001d10 <__kernel_rem_pio2+0x44c>
 1001c68:	8c400044 	addi	r17,r17,1
 1001c6c:	0481570e 	bge	zero,r18,10021cc <__kernel_rem_pio2+0x908>
 1001c70:	02804034 	movhi	r10,256
 1001c74:	52bfffc4 	addi	r10,r10,-1
 1001c78:	d8807804 	addi	r2,sp,480
 1001c7c:	000b883a 	mov	r5,zero
 1001c80:	0029883a 	mov	r20,zero
 1001c84:	01c04034 	movhi	r7,256
 1001c88:	00000706 	br	1001ca8 <__kernel_rem_pio2+0x3e4>
 1001c8c:	390dc83a 	sub	r6,r7,r4
 1001c90:	20000226 	beq	r4,zero,1001c9c <__kernel_rem_pio2+0x3d8>
 1001c94:	11800015 	stw	r6,0(r2)
 1001c98:	05000044 	movi	r20,1
 1001c9c:	29400044 	addi	r5,r5,1
 1001ca0:	10800104 	addi	r2,r2,4
 1001ca4:	2c80080e 	bge	r5,r18,1001cc8 <__kernel_rem_pio2+0x404>
 1001ca8:	11000017 	ldw	r4,0(r2)
 1001cac:	a03ff726 	beq	r20,zero,1001c8c <__kernel_rem_pio2+0x3c8>
 1001cb0:	5109c83a 	sub	r4,r10,r4
 1001cb4:	11000015 	stw	r4,0(r2)
 1001cb8:	29400044 	addi	r5,r5,1
 1001cbc:	05000044 	movi	r20,1
 1001cc0:	10800104 	addi	r2,r2,4
 1001cc4:	2cbff816 	blt	r5,r18,1001ca8 <__kernel_rem_pio2+0x3e4>
 1001cc8:	d9009017 	ldw	r4,576(sp)
 1001ccc:	01000e0e 	bge	zero,r4,1001d08 <__kernel_rem_pio2+0x444>
 1001cd0:	00800044 	movi	r2,1
 1001cd4:	20808d26 	beq	r4,r2,1001f0c <__kernel_rem_pio2+0x648>
 1001cd8:	00800084 	movi	r2,2
 1001cdc:	20800a1e 	bne	r4,r2,1001d08 <__kernel_rem_pio2+0x444>
 1001ce0:	90bfffc4 	addi	r2,r18,-1
 1001ce4:	1085883a 	add	r2,r2,r2
 1001ce8:	1085883a 	add	r2,r2,r2
 1001cec:	d885883a 	add	r2,sp,r2
 1001cf0:	10807804 	addi	r2,r2,480
 1001cf4:	11400017 	ldw	r5,0(r2)
 1001cf8:	01001034 	movhi	r4,64
 1001cfc:	213fffc4 	addi	r4,r4,-1
 1001d00:	2908703a 	and	r4,r5,r4
 1001d04:	11000015 	stw	r4,0(r2)
 1001d08:	00800084 	movi	r2,2
 1001d0c:	98805d26 	beq	r19,r2,1001e84 <__kernel_rem_pio2+0x5c0>
 1001d10:	400b883a 	mov	r5,r8
 1001d14:	000d883a 	mov	r6,zero
 1001d18:	000f883a 	mov	r7,zero
 1001d1c:	a809883a 	mov	r4,r21
 1001d20:	da009b15 	stw	r8,620(sp)
 1001d24:	10040d00 	call	10040d0 <__eqdf2>
 1001d28:	da009b17 	ldw	r8,620(sp)
 1001d2c:	10012b1e 	bne	r2,zero,10021dc <__kernel_rem_pio2+0x918>
 1001d30:	da009417 	ldw	r8,592(sp)
 1001d34:	917fffc4 	addi	r5,r18,-1
 1001d38:	2a000e16 	blt	r5,r8,1001d74 <__kernel_rem_pio2+0x4b0>
 1001d3c:	00900034 	movhi	r2,16384
 1001d40:	10bfffc4 	addi	r2,r2,-1
 1001d44:	9085883a 	add	r2,r18,r2
 1001d48:	1085883a 	add	r2,r2,r2
 1001d4c:	d9809717 	ldw	r6,604(sp)
 1001d50:	1085883a 	add	r2,r2,r2
 1001d54:	d9007804 	addi	r4,sp,480
 1001d58:	0007883a 	mov	r3,zero
 1001d5c:	2085883a 	add	r2,r4,r2
 1001d60:	11000017 	ldw	r4,0(r2)
 1001d64:	10bfff04 	addi	r2,r2,-4
 1001d68:	1906b03a 	or	r3,r3,r4
 1001d6c:	11bffc1e 	bne	r2,r6,1001d60 <__kernel_rem_pio2+0x49c>
 1001d70:	1800821e 	bne	r3,zero,1001f7c <__kernel_rem_pio2+0x6b8>
 1001d74:	da009817 	ldw	r8,608(sp)
 1001d78:	40800017 	ldw	r2,0(r8)
 1001d7c:	1001151e 	bne	r2,zero,10021d4 <__kernel_rem_pio2+0x910>
 1001d80:	d8809617 	ldw	r2,600(sp)
 1001d84:	05000044 	movi	r20,1
 1001d88:	10bfff04 	addi	r2,r2,-4
 1001d8c:	10c00117 	ldw	r3,4(r2)
 1001d90:	a5000044 	addi	r20,r20,1
 1001d94:	183ffc26 	beq	r3,zero,1001d88 <__kernel_rem_pio2+0x4c4>
 1001d98:	9529883a 	add	r20,r18,r20
 1001d9c:	90800044 	addi	r2,r18,1
 1001da0:	dd009115 	stw	r20,580(sp)
 1001da4:	a0803216 	blt	r20,r2,1001e70 <__kernel_rem_pio2+0x5ac>
 1001da8:	da009317 	ldw	r8,588(sp)
 1001dac:	d8c09117 	ldw	r3,580(sp)
 1001db0:	44a3883a 	add	r17,r8,r18
 1001db4:	da009217 	ldw	r8,584(sp)
 1001db8:	882290fa 	slli	r17,r17,3
 1001dbc:	40a5883a 	add	r18,r8,r2
 1001dc0:	da009517 	ldw	r8,596(sp)
 1001dc4:	100490fa 	slli	r2,r2,3
 1001dc8:	94a5883a 	add	r18,r18,r18
 1001dcc:	40eb883a 	add	r21,r8,r3
 1001dd0:	da00a717 	ldw	r8,668(sp)
 1001dd4:	ad6b883a 	add	r21,r21,r21
 1001dd8:	94a5883a 	add	r18,r18,r18
 1001ddc:	ad6b883a 	add	r21,r21,r21
 1001de0:	d8c05004 	addi	r3,sp,320
 1001de4:	44a5883a 	add	r18,r8,r18
 1001de8:	1c63883a 	add	r17,r3,r17
 1001dec:	d8a7883a 	add	r19,sp,r2
 1001df0:	456b883a 	add	r21,r8,r21
 1001df4:	91000017 	ldw	r4,0(r18)
 1001df8:	100541c0 	call	100541c <__floatsidf>
 1001dfc:	da008d17 	ldw	r8,564(sp)
 1001e00:	88800015 	stw	r2,0(r17)
 1001e04:	88c00115 	stw	r3,4(r17)
 1001e08:	40001b16 	blt	r8,zero,1001e78 <__kernel_rem_pio2+0x5b4>
 1001e0c:	dd008e17 	ldw	r20,568(sp)
 1001e10:	882d883a 	mov	r22,r17
 1001e14:	002f883a 	mov	r23,zero
 1001e18:	0039883a 	mov	fp,zero
 1001e1c:	b1800017 	ldw	r6,0(r22)
 1001e20:	b1c00117 	ldw	r7,4(r22)
 1001e24:	a1000017 	ldw	r4,0(r20)
 1001e28:	a1400117 	ldw	r5,4(r20)
 1001e2c:	a5000204 	addi	r20,r20,8
 1001e30:	b5bffe04 	addi	r22,r22,-8
 1001e34:	10042340 	call	1004234 <__muldf3>
 1001e38:	b809883a 	mov	r4,r23
 1001e3c:	e00b883a 	mov	r5,fp
 1001e40:	100d883a 	mov	r6,r2
 1001e44:	180f883a 	mov	r7,r3
 1001e48:	10038240 	call	1003824 <__adddf3>
 1001e4c:	102f883a 	mov	r23,r2
 1001e50:	1839883a 	mov	fp,r3
 1001e54:	a43ff11e 	bne	r20,r16,1001e1c <__kernel_rem_pio2+0x558>
 1001e58:	9dc00015 	stw	r23,0(r19)
 1001e5c:	9f000115 	stw	fp,4(r19)
 1001e60:	94800104 	addi	r18,r18,4
 1001e64:	8c400204 	addi	r17,r17,8
 1001e68:	9cc00204 	addi	r19,r19,8
 1001e6c:	957fe11e 	bne	r18,r21,1001df4 <__kernel_rem_pio2+0x530>
 1001e70:	dc809117 	ldw	r18,580(sp)
 1001e74:	003f0f06 	br	1001ab4 <__kernel_rem_pio2+0x1f0>
 1001e78:	002f883a 	mov	r23,zero
 1001e7c:	0039883a 	mov	fp,zero
 1001e80:	003ff506 	br	1001e58 <__kernel_rem_pio2+0x594>
 1001e84:	480d883a 	mov	r6,r9
 1001e88:	180f883a 	mov	r7,r3
 1001e8c:	0009883a 	mov	r4,zero
 1001e90:	014ffc34 	movhi	r5,16368
 1001e94:	1004aa00 	call	1004aa0 <__subdf3>
 1001e98:	102b883a 	mov	r21,r2
 1001e9c:	1811883a 	mov	r8,r3
 1001ea0:	a03f9b26 	beq	r20,zero,1001d10 <__kernel_rem_pio2+0x44c>
 1001ea4:	d9809017 	ldw	r6,576(sp)
 1001ea8:	0009883a 	mov	r4,zero
 1001eac:	014ffc34 	movhi	r5,16368
 1001eb0:	d8c09b15 	stw	r3,620(sp)
 1001eb4:	1002b280 	call	1002b28 <scalbn>
 1001eb8:	da009b17 	ldw	r8,620(sp)
 1001ebc:	a809883a 	mov	r4,r21
 1001ec0:	100d883a 	mov	r6,r2
 1001ec4:	400b883a 	mov	r5,r8
 1001ec8:	180f883a 	mov	r7,r3
 1001ecc:	1004aa00 	call	1004aa0 <__subdf3>
 1001ed0:	102b883a 	mov	r21,r2
 1001ed4:	1811883a 	mov	r8,r3
 1001ed8:	003f8d06 	br	1001d10 <__kernel_rem_pio2+0x44c>
 1001edc:	0005883a 	mov	r2,zero
 1001ee0:	0007883a 	mov	r3,zero
 1001ee4:	003eac06 	br	1001998 <__kernel_rem_pio2+0xd4>
 1001ee8:	d8809017 	ldw	r2,576(sp)
 1001eec:	1000121e 	bne	r2,zero,1001f38 <__kernel_rem_pio2+0x674>
 1001ef0:	90bfffc4 	addi	r2,r18,-1
 1001ef4:	1085883a 	add	r2,r2,r2
 1001ef8:	1085883a 	add	r2,r2,r2
 1001efc:	d885883a 	add	r2,sp,r2
 1001f00:	14c07817 	ldw	r19,480(r2)
 1001f04:	9827d5fa 	srai	r19,r19,23
 1001f08:	003f5606 	br	1001c64 <__kernel_rem_pio2+0x3a0>
 1001f0c:	90bfffc4 	addi	r2,r18,-1
 1001f10:	1085883a 	add	r2,r2,r2
 1001f14:	1085883a 	add	r2,r2,r2
 1001f18:	d885883a 	add	r2,sp,r2
 1001f1c:	10807804 	addi	r2,r2,480
 1001f20:	11000017 	ldw	r4,0(r2)
 1001f24:	01402034 	movhi	r5,128
 1001f28:	297fffc4 	addi	r5,r5,-1
 1001f2c:	2148703a 	and	r4,r4,r5
 1001f30:	11000015 	stw	r4,0(r2)
 1001f34:	003f7406 	br	1001d08 <__kernel_rem_pio2+0x444>
 1001f38:	4809883a 	mov	r4,r9
 1001f3c:	180b883a 	mov	r5,r3
 1001f40:	000d883a 	mov	r6,zero
 1001f44:	01cff834 	movhi	r7,16352
 1001f48:	d8c09a15 	stw	r3,616(sp)
 1001f4c:	d8c09b15 	stw	r3,620(sp)
 1001f50:	da409915 	stw	r9,612(sp)
 1001f54:	10041580 	call	1004158 <__gedf2>
 1001f58:	d8c09a17 	ldw	r3,616(sp)
 1001f5c:	da009b17 	ldw	r8,620(sp)
 1001f60:	da409917 	ldw	r9,612(sp)
 1001f64:	1000920e 	bge	r2,zero,10021b0 <__kernel_rem_pio2+0x8ec>
 1001f68:	0027883a 	mov	r19,zero
 1001f6c:	003f6806 	br	1001d10 <__kernel_rem_pio2+0x44c>
 1001f70:	002d883a 	mov	r22,zero
 1001f74:	002b883a 	mov	r21,zero
 1001f78:	003eb006 	br	1001a3c <__kernel_rem_pio2+0x178>
 1001f7c:	2945883a 	add	r2,r5,r5
 1001f80:	da009017 	ldw	r8,576(sp)
 1001f84:	1085883a 	add	r2,r2,r2
 1001f88:	d885883a 	add	r2,sp,r2
 1001f8c:	10807817 	ldw	r2,480(r2)
 1001f90:	423ffa04 	addi	r8,r8,-24
 1001f94:	dc409115 	stw	r17,580(sp)
 1001f98:	dcc08d15 	stw	r19,564(sp)
 1001f9c:	da009015 	stw	r8,576(sp)
 1001fa0:	dd809417 	ldw	r22,592(sp)
 1001fa4:	2823883a 	mov	r17,r5
 1001fa8:	10000e1e 	bne	r2,zero,1001fe4 <__kernel_rem_pio2+0x720>
 1001fac:	00900034 	movhi	r2,16384
 1001fb0:	10bfffc4 	addi	r2,r2,-1
 1001fb4:	2885883a 	add	r2,r5,r2
 1001fb8:	1085883a 	add	r2,r2,r2
 1001fbc:	d8c07804 	addi	r3,sp,480
 1001fc0:	1085883a 	add	r2,r2,r2
 1001fc4:	1885883a 	add	r2,r3,r2
 1001fc8:	4007883a 	mov	r3,r8
 1001fcc:	10bfff04 	addi	r2,r2,-4
 1001fd0:	11000117 	ldw	r4,4(r2)
 1001fd4:	8c7fffc4 	addi	r17,r17,-1
 1001fd8:	18fffa04 	addi	r3,r3,-24
 1001fdc:	203ffb26 	beq	r4,zero,1001fcc <__kernel_rem_pio2+0x708>
 1001fe0:	d8c09015 	stw	r3,576(sp)
 1001fe4:	d9809017 	ldw	r6,576(sp)
 1001fe8:	0009883a 	mov	r4,zero
 1001fec:	014ffc34 	movhi	r5,16368
 1001ff0:	1002b280 	call	1002b28 <scalbn>
 1001ff4:	1029883a 	mov	r20,r2
 1001ff8:	182b883a 	mov	r21,r3
 1001ffc:	88018416 	blt	r17,zero,1002610 <__kernel_rem_pio2+0xd4c>
 1002000:	881090fa 	slli	r8,r17,3
 1002004:	d8c07804 	addi	r3,sp,480
 1002008:	da008e15 	stw	r8,568(sp)
 100200c:	d8808e17 	ldw	r2,568(sp)
 1002010:	8c51883a 	add	r8,r17,r17
 1002014:	4211883a 	add	r8,r8,r8
 1002018:	d8a1883a 	add	r16,sp,r2
 100201c:	1a25883a 	add	r18,r3,r8
 1002020:	da3ffe04 	addi	r8,sp,-8
 1002024:	da008c15 	stw	r8,560(sp)
 1002028:	8039883a 	mov	fp,r16
 100202c:	91000017 	ldw	r4,0(r18)
 1002030:	e73ffe04 	addi	fp,fp,-8
 1002034:	94bfff04 	addi	r18,r18,-4
 1002038:	100541c0 	call	100541c <__floatsidf>
 100203c:	a00d883a 	mov	r6,r20
 1002040:	a80f883a 	mov	r7,r21
 1002044:	1009883a 	mov	r4,r2
 1002048:	180b883a 	mov	r5,r3
 100204c:	10042340 	call	1004234 <__muldf3>
 1002050:	a009883a 	mov	r4,r20
 1002054:	a80b883a 	mov	r5,r21
 1002058:	e0800215 	stw	r2,8(fp)
 100205c:	e0c00315 	stw	r3,12(fp)
 1002060:	000d883a 	mov	r6,zero
 1002064:	01cf9c34 	movhi	r7,15984
 1002068:	10042340 	call	1004234 <__muldf3>
 100206c:	da008c17 	ldw	r8,560(sp)
 1002070:	1029883a 	mov	r20,r2
 1002074:	182b883a 	mov	r21,r3
 1002078:	e23fec1e 	bne	fp,r8,100202c <__kernel_rem_pio2+0x768>
 100207c:	0029883a 	mov	r20,zero
 1002080:	b0004f16 	blt	r22,zero,10021c0 <__kernel_rem_pio2+0x8fc>
 1002084:	05404034 	movhi	r21,256
 1002088:	014ffe74 	movhi	r5,16377
 100208c:	ad58ee04 	addi	r21,r21,25528
 1002090:	8027883a 	mov	r19,r16
 1002094:	01100034 	movhi	r4,16384
 1002098:	29487ec4 	addi	r5,r5,8699
 100209c:	0039883a 	mov	fp,zero
 10020a0:	002f883a 	mov	r23,zero
 10020a4:	0025883a 	mov	r18,zero
 10020a8:	00000506 	br	10020c0 <__kernel_rem_pio2+0x7fc>
 10020ac:	9cc00204 	addi	r19,r19,8
 10020b0:	a4800f16 	blt	r20,r18,10020f0 <__kernel_rem_pio2+0x82c>
 10020b4:	a9000017 	ldw	r4,0(r21)
 10020b8:	a9400117 	ldw	r5,4(r21)
 10020bc:	ad400204 	addi	r21,r21,8
 10020c0:	99800017 	ldw	r6,0(r19)
 10020c4:	99c00117 	ldw	r7,4(r19)
 10020c8:	94800044 	addi	r18,r18,1
 10020cc:	10042340 	call	1004234 <__muldf3>
 10020d0:	e009883a 	mov	r4,fp
 10020d4:	b80b883a 	mov	r5,r23
 10020d8:	100d883a 	mov	r6,r2
 10020dc:	180f883a 	mov	r7,r3
 10020e0:	10038240 	call	1003824 <__adddf3>
 10020e4:	1039883a 	mov	fp,r2
 10020e8:	182f883a 	mov	r23,r3
 10020ec:	b4bfef0e 	bge	r22,r18,10020ac <__kernel_rem_pio2+0x7e8>
 10020f0:	a00490fa 	slli	r2,r20,3
 10020f4:	da008c17 	ldw	r8,560(sp)
 10020f8:	843ffe04 	addi	r16,r16,-8
 10020fc:	d885883a 	add	r2,sp,r2
 1002100:	10802804 	addi	r2,r2,160
 1002104:	17000015 	stw	fp,0(r2)
 1002108:	15c00115 	stw	r23,4(r2)
 100210c:	a5000044 	addi	r20,r20,1
 1002110:	823fdb1e 	bne	r16,r8,1002080 <__kernel_rem_pio2+0x7bc>
 1002114:	da00a617 	ldw	r8,664(sp)
 1002118:	00800084 	movi	r2,2
 100211c:	12006616 	blt	r2,r8,10022b8 <__kernel_rem_pio2+0x9f4>
 1002120:	0200de16 	blt	zero,r8,100249c <__kernel_rem_pio2+0xbd8>
 1002124:	4000141e 	bne	r8,zero,1002178 <__kernel_rem_pio2+0x8b4>
 1002128:	da008e17 	ldw	r8,568(sp)
 100212c:	d8802804 	addi	r2,sp,160
 1002130:	0007883a 	mov	r3,zero
 1002134:	1225883a 	add	r18,r2,r8
 1002138:	043fffc4 	movi	r16,-1
 100213c:	0005883a 	mov	r2,zero
 1002140:	91800017 	ldw	r6,0(r18)
 1002144:	91c00117 	ldw	r7,4(r18)
 1002148:	1009883a 	mov	r4,r2
 100214c:	180b883a 	mov	r5,r3
 1002150:	8c7fffc4 	addi	r17,r17,-1
 1002154:	10038240 	call	1003824 <__adddf3>
 1002158:	94bffe04 	addi	r18,r18,-8
 100215c:	8c3ff81e 	bne	r17,r16,1002140 <__kernel_rem_pio2+0x87c>
 1002160:	da008d17 	ldw	r8,564(sp)
 1002164:	40000126 	beq	r8,zero,100216c <__kernel_rem_pio2+0x8a8>
 1002168:	18e0003c 	xorhi	r3,r3,32768
 100216c:	da008f17 	ldw	r8,572(sp)
 1002170:	40800015 	stw	r2,0(r8)
 1002174:	40c00115 	stw	r3,4(r8)
 1002178:	da009117 	ldw	r8,580(sp)
 100217c:	408001cc 	andi	r2,r8,7
 1002180:	dfc0a517 	ldw	ra,660(sp)
 1002184:	df00a417 	ldw	fp,656(sp)
 1002188:	ddc0a317 	ldw	r23,652(sp)
 100218c:	dd80a217 	ldw	r22,648(sp)
 1002190:	dd40a117 	ldw	r21,644(sp)
 1002194:	dd00a017 	ldw	r20,640(sp)
 1002198:	dcc09f17 	ldw	r19,636(sp)
 100219c:	dc809e17 	ldw	r18,632(sp)
 10021a0:	dc409d17 	ldw	r17,628(sp)
 10021a4:	dc009c17 	ldw	r16,624(sp)
 10021a8:	dec0a604 	addi	sp,sp,664
 10021ac:	f800283a 	ret
 10021b0:	8c400044 	addi	r17,r17,1
 10021b4:	04810d0e 	bge	zero,r18,10025ec <__kernel_rem_pio2+0xd28>
 10021b8:	04c00084 	movi	r19,2
 10021bc:	003eac06 	br	1001c70 <__kernel_rem_pio2+0x3ac>
 10021c0:	0039883a 	mov	fp,zero
 10021c4:	002f883a 	mov	r23,zero
 10021c8:	003fc906 	br	10020f0 <__kernel_rem_pio2+0x82c>
 10021cc:	0029883a 	mov	r20,zero
 10021d0:	003ebd06 	br	1001cc8 <__kernel_rem_pio2+0x404>
 10021d4:	05000044 	movi	r20,1
 10021d8:	003eef06 	br	1001d98 <__kernel_rem_pio2+0x4d4>
 10021dc:	4029883a 	mov	r20,r8
 10021e0:	da009017 	ldw	r8,576(sp)
 10021e4:	a809883a 	mov	r4,r21
 10021e8:	a00b883a 	mov	r5,r20
 10021ec:	020dc83a 	sub	r6,zero,r8
 10021f0:	dc409115 	stw	r17,580(sp)
 10021f4:	dd809417 	ldw	r22,592(sp)
 10021f8:	dcc08d15 	stw	r19,564(sp)
 10021fc:	1002b280 	call	1002b28 <scalbn>
 1002200:	000d883a 	mov	r6,zero
 1002204:	01d05c34 	movhi	r7,16752
 1002208:	1009883a 	mov	r4,r2
 100220c:	180b883a 	mov	r5,r3
 1002210:	102b883a 	mov	r21,r2
 1002214:	1823883a 	mov	r17,r3
 1002218:	10041580 	call	1004158 <__gedf2>
 100221c:	1000e916 	blt	r2,zero,10025c4 <__kernel_rem_pio2+0xd00>
 1002220:	000d883a 	mov	r6,zero
 1002224:	01cf9c34 	movhi	r7,15984
 1002228:	880b883a 	mov	r5,r17
 100222c:	a809883a 	mov	r4,r21
 1002230:	10042340 	call	1004234 <__muldf3>
 1002234:	180b883a 	mov	r5,r3
 1002238:	1009883a 	mov	r4,r2
 100223c:	100539c0 	call	100539c <__fixdfsi>
 1002240:	1029883a 	mov	r20,r2
 1002244:	9485883a 	add	r2,r18,r18
 1002248:	1085883a 	add	r2,r2,r2
 100224c:	a009883a 	mov	r4,r20
 1002250:	d8a1883a 	add	r16,sp,r2
 1002254:	100541c0 	call	100541c <__floatsidf>
 1002258:	000d883a 	mov	r6,zero
 100225c:	01d05c34 	movhi	r7,16752
 1002260:	1009883a 	mov	r4,r2
 1002264:	180b883a 	mov	r5,r3
 1002268:	10042340 	call	1004234 <__muldf3>
 100226c:	880b883a 	mov	r5,r17
 1002270:	100d883a 	mov	r6,r2
 1002274:	180f883a 	mov	r7,r3
 1002278:	a809883a 	mov	r4,r21
 100227c:	1004aa00 	call	1004aa0 <__subdf3>
 1002280:	180b883a 	mov	r5,r3
 1002284:	1009883a 	mov	r4,r2
 1002288:	100539c0 	call	100539c <__fixdfsi>
 100228c:	da009017 	ldw	r8,576(sp)
 1002290:	94400044 	addi	r17,r18,1
 1002294:	8c47883a 	add	r3,r17,r17
 1002298:	84007804 	addi	r16,r16,480
 100229c:	18c7883a 	add	r3,r3,r3
 10022a0:	80800015 	stw	r2,0(r16)
 10022a4:	d8c7883a 	add	r3,sp,r3
 10022a8:	42000604 	addi	r8,r8,24
 10022ac:	da009015 	stw	r8,576(sp)
 10022b0:	1d007815 	stw	r20,480(r3)
 10022b4:	003f4b06 	br	1001fe4 <__kernel_rem_pio2+0x720>
 10022b8:	da00a617 	ldw	r8,664(sp)
 10022bc:	008000c4 	movi	r2,3
 10022c0:	40bfad1e 	bne	r8,r2,1002178 <__kernel_rem_pio2+0x8b4>
 10022c4:	0440bc0e 	bge	zero,r17,10025b8 <__kernel_rem_pio2+0xcf4>
 10022c8:	da008e17 	ldw	r8,568(sp)
 10022cc:	882090fa 	slli	r16,r17,3
 10022d0:	dd402804 	addi	r21,sp,160
 10022d4:	da05883a 	add	r2,sp,r8
 10022d8:	10802804 	addi	r2,r2,160
 10022dc:	15c00017 	ldw	r23,0(r2)
 10022e0:	15800117 	ldw	r22,4(r2)
 10022e4:	8029883a 	mov	r20,r16
 10022e8:	843ffe04 	addi	r16,r16,-8
 10022ec:	ac21883a 	add	r16,r21,r16
 10022f0:	ad29883a 	add	r20,r21,r20
 10022f4:	dac02604 	addi	r11,sp,152
 10022f8:	8811883a 	mov	r8,r17
 10022fc:	84400017 	ldw	r17,0(r16)
 1002300:	87000117 	ldw	fp,4(r16)
 1002304:	b80d883a 	mov	r6,r23
 1002308:	b00f883a 	mov	r7,r22
 100230c:	8809883a 	mov	r4,r17
 1002310:	e00b883a 	mov	r5,fp
 1002314:	da009b15 	stw	r8,620(sp)
 1002318:	dac09915 	stw	r11,612(sp)
 100231c:	10038240 	call	1003824 <__adddf3>
 1002320:	100d883a 	mov	r6,r2
 1002324:	180f883a 	mov	r7,r3
 1002328:	8809883a 	mov	r4,r17
 100232c:	e00b883a 	mov	r5,fp
 1002330:	1027883a 	mov	r19,r2
 1002334:	1825883a 	mov	r18,r3
 1002338:	1004aa00 	call	1004aa0 <__subdf3>
 100233c:	b80d883a 	mov	r6,r23
 1002340:	b00f883a 	mov	r7,r22
 1002344:	1009883a 	mov	r4,r2
 1002348:	180b883a 	mov	r5,r3
 100234c:	10038240 	call	1003824 <__adddf3>
 1002350:	dac09917 	ldw	r11,612(sp)
 1002354:	a0800015 	stw	r2,0(r20)
 1002358:	a0c00115 	stw	r3,4(r20)
 100235c:	84c00015 	stw	r19,0(r16)
 1002360:	84800115 	stw	r18,4(r16)
 1002364:	843ffe04 	addi	r16,r16,-8
 1002368:	a53ffe04 	addi	r20,r20,-8
 100236c:	982f883a 	mov	r23,r19
 1002370:	902d883a 	mov	r22,r18
 1002374:	da009b17 	ldw	r8,620(sp)
 1002378:	5c3fe01e 	bne	r11,r16,10022fc <__kernel_rem_pio2+0xa38>
 100237c:	00800044 	movi	r2,1
 1002380:	12008d0e 	bge	r2,r8,10025b8 <__kernel_rem_pio2+0xcf4>
 1002384:	402090fa 	slli	r16,r8,3
 1002388:	da008e17 	ldw	r8,568(sp)
 100238c:	8023883a 	mov	r17,r16
 1002390:	da05883a 	add	r2,sp,r8
 1002394:	10802804 	addi	r2,r2,160
 1002398:	15800017 	ldw	r22,0(r2)
 100239c:	15000117 	ldw	r20,4(r2)
 10023a0:	ac63883a 	add	r17,r21,r17
 10023a4:	843ffe04 	addi	r16,r16,-8
 10023a8:	ac21883a 	add	r16,r21,r16
 10023ac:	8825883a 	mov	r18,r17
 10023b0:	8811883a 	mov	r8,r17
 10023b4:	84400017 	ldw	r17,0(r16)
 10023b8:	87000117 	ldw	fp,4(r16)
 10023bc:	b009883a 	mov	r4,r22
 10023c0:	a00b883a 	mov	r5,r20
 10023c4:	880d883a 	mov	r6,r17
 10023c8:	e00f883a 	mov	r7,fp
 10023cc:	da009b15 	stw	r8,620(sp)
 10023d0:	10038240 	call	1003824 <__adddf3>
 10023d4:	100d883a 	mov	r6,r2
 10023d8:	180f883a 	mov	r7,r3
 10023dc:	8809883a 	mov	r4,r17
 10023e0:	e00b883a 	mov	r5,fp
 10023e4:	102f883a 	mov	r23,r2
 10023e8:	1827883a 	mov	r19,r3
 10023ec:	1004aa00 	call	1004aa0 <__subdf3>
 10023f0:	b00d883a 	mov	r6,r22
 10023f4:	a00f883a 	mov	r7,r20
 10023f8:	1009883a 	mov	r4,r2
 10023fc:	180b883a 	mov	r5,r3
 1002400:	10038240 	call	1003824 <__adddf3>
 1002404:	90800015 	stw	r2,0(r18)
 1002408:	90c00115 	stw	r3,4(r18)
 100240c:	85c00015 	stw	r23,0(r16)
 1002410:	84c00115 	stw	r19,4(r16)
 1002414:	843ffe04 	addi	r16,r16,-8
 1002418:	94bffe04 	addi	r18,r18,-8
 100241c:	b82d883a 	mov	r22,r23
 1002420:	9829883a 	mov	r20,r19
 1002424:	da009b17 	ldw	r8,620(sp)
 1002428:	ac3fe21e 	bne	r21,r16,10023b4 <__kernel_rem_pio2+0xaf0>
 100242c:	4023883a 	mov	r17,r8
 1002430:	dc002a04 	addi	r16,sp,168
 1002434:	0005883a 	mov	r2,zero
 1002438:	0007883a 	mov	r3,zero
 100243c:	89800017 	ldw	r6,0(r17)
 1002440:	89c00117 	ldw	r7,4(r17)
 1002444:	1009883a 	mov	r4,r2
 1002448:	8c7ffe04 	addi	r17,r17,-8
 100244c:	180b883a 	mov	r5,r3
 1002450:	10038240 	call	1003824 <__adddf3>
 1002454:	847ff91e 	bne	r16,r17,100243c <__kernel_rem_pio2+0xb78>
 1002458:	da008d17 	ldw	r8,564(sp)
 100245c:	40004726 	beq	r8,zero,100257c <__kernel_rem_pio2+0xcb8>
 1002460:	d9002b17 	ldw	r4,172(sp)
 1002464:	d9402917 	ldw	r5,164(sp)
 1002468:	d9802a17 	ldw	r6,168(sp)
 100246c:	da008f17 	ldw	r8,572(sp)
 1002470:	d9c02817 	ldw	r7,160(sp)
 1002474:	2960003c 	xorhi	r5,r5,32768
 1002478:	2120003c 	xorhi	r4,r4,32768
 100247c:	18e0003c 	xorhi	r3,r3,32768
 1002480:	41c00015 	stw	r7,0(r8)
 1002484:	41400115 	stw	r5,4(r8)
 1002488:	41800215 	stw	r6,8(r8)
 100248c:	41000315 	stw	r4,12(r8)
 1002490:	40800415 	stw	r2,16(r8)
 1002494:	40c00515 	stw	r3,20(r8)
 1002498:	003f3706 	br	1002178 <__kernel_rem_pio2+0x8b4>
 100249c:	da008e17 	ldw	r8,568(sp)
 10024a0:	d8802804 	addi	r2,sp,160
 10024a4:	dc002604 	addi	r16,sp,152
 10024a8:	1225883a 	add	r18,r2,r8
 10024ac:	0007883a 	mov	r3,zero
 10024b0:	0005883a 	mov	r2,zero
 10024b4:	91800017 	ldw	r6,0(r18)
 10024b8:	91c00117 	ldw	r7,4(r18)
 10024bc:	1009883a 	mov	r4,r2
 10024c0:	94bffe04 	addi	r18,r18,-8
 10024c4:	180b883a 	mov	r5,r3
 10024c8:	10038240 	call	1003824 <__adddf3>
 10024cc:	943ff91e 	bne	r18,r16,10024b4 <__kernel_rem_pio2+0xbf0>
 10024d0:	da008d17 	ldw	r8,564(sp)
 10024d4:	d9002817 	ldw	r4,160(sp)
 10024d8:	d9402917 	ldw	r5,164(sp)
 10024dc:	40001a26 	beq	r8,zero,1002548 <__kernel_rem_pio2+0xc84>
 10024e0:	da008f17 	ldw	r8,572(sp)
 10024e4:	19a0003c 	xorhi	r6,r3,32768
 10024e8:	180f883a 	mov	r7,r3
 10024ec:	41800115 	stw	r6,4(r8)
 10024f0:	40800015 	stw	r2,0(r8)
 10024f4:	100d883a 	mov	r6,r2
 10024f8:	1004aa00 	call	1004aa0 <__subdf3>
 10024fc:	04400c0e 	bge	zero,r17,1002530 <__kernel_rem_pio2+0xc6c>
 1002500:	dc002a04 	addi	r16,sp,168
 1002504:	04800044 	movi	r18,1
 1002508:	81800017 	ldw	r6,0(r16)
 100250c:	81c00117 	ldw	r7,4(r16)
 1002510:	1009883a 	mov	r4,r2
 1002514:	180b883a 	mov	r5,r3
 1002518:	94800044 	addi	r18,r18,1
 100251c:	10038240 	call	1003824 <__adddf3>
 1002520:	84000204 	addi	r16,r16,8
 1002524:	8cbff80e 	bge	r17,r18,1002508 <__kernel_rem_pio2+0xc44>
 1002528:	da008d17 	ldw	r8,564(sp)
 100252c:	40004226 	beq	r8,zero,1002638 <__kernel_rem_pio2+0xd74>
 1002530:	da008f17 	ldw	r8,572(sp)
 1002534:	1009883a 	mov	r4,r2
 1002538:	18a0003c 	xorhi	r2,r3,32768
 100253c:	41000215 	stw	r4,8(r8)
 1002540:	40800315 	stw	r2,12(r8)
 1002544:	003f0c06 	br	1002178 <__kernel_rem_pio2+0x8b4>
 1002548:	da008f17 	ldw	r8,572(sp)
 100254c:	100d883a 	mov	r6,r2
 1002550:	180f883a 	mov	r7,r3
 1002554:	40800015 	stw	r2,0(r8)
 1002558:	40c00115 	stw	r3,4(r8)
 100255c:	1004aa00 	call	1004aa0 <__subdf3>
 1002560:	047fe716 	blt	zero,r17,1002500 <__kernel_rem_pio2+0xc3c>
 1002564:	da008f17 	ldw	r8,572(sp)
 1002568:	1009883a 	mov	r4,r2
 100256c:	1805883a 	mov	r2,r3
 1002570:	41000215 	stw	r4,8(r8)
 1002574:	40800315 	stw	r2,12(r8)
 1002578:	003eff06 	br	1002178 <__kernel_rem_pio2+0x8b4>
 100257c:	da008f17 	ldw	r8,572(sp)
 1002580:	d9802817 	ldw	r6,160(sp)
 1002584:	d9402a17 	ldw	r5,168(sp)
 1002588:	d9002b17 	ldw	r4,172(sp)
 100258c:	41800015 	stw	r6,0(r8)
 1002590:	d9802917 	ldw	r6,164(sp)
 1002594:	41400215 	stw	r5,8(r8)
 1002598:	41000315 	stw	r4,12(r8)
 100259c:	41800115 	stw	r6,4(r8)
 10025a0:	40800415 	stw	r2,16(r8)
 10025a4:	40c00515 	stw	r3,20(r8)
 10025a8:	003ef306 	br	1002178 <__kernel_rem_pio2+0x8b4>
 10025ac:	da00a617 	ldw	r8,664(sp)
 10025b0:	008000c4 	movi	r2,3
 10025b4:	40bef01e 	bne	r8,r2,1002178 <__kernel_rem_pio2+0x8b4>
 10025b8:	0005883a 	mov	r2,zero
 10025bc:	0007883a 	mov	r3,zero
 10025c0:	003fa506 	br	1002458 <__kernel_rem_pio2+0xb94>
 10025c4:	9485883a 	add	r2,r18,r18
 10025c8:	1085883a 	add	r2,r2,r2
 10025cc:	d8a1883a 	add	r16,sp,r2
 10025d0:	880b883a 	mov	r5,r17
 10025d4:	a809883a 	mov	r4,r21
 10025d8:	84007804 	addi	r16,r16,480
 10025dc:	100539c0 	call	100539c <__fixdfsi>
 10025e0:	80800015 	stw	r2,0(r16)
 10025e4:	9023883a 	mov	r17,r18
 10025e8:	003e7e06 	br	1001fe4 <__kernel_rem_pio2+0x720>
 10025ec:	a80d883a 	mov	r6,r21
 10025f0:	400f883a 	mov	r7,r8
 10025f4:	0009883a 	mov	r4,zero
 10025f8:	014ffc34 	movhi	r5,16368
 10025fc:	1004aa00 	call	1004aa0 <__subdf3>
 1002600:	102b883a 	mov	r21,r2
 1002604:	1811883a 	mov	r8,r3
 1002608:	04c00084 	movi	r19,2
 100260c:	003dc006 	br	1001d10 <__kernel_rem_pio2+0x44c>
 1002610:	da00a617 	ldw	r8,664(sp)
 1002614:	00800084 	movi	r2,2
 1002618:	123fe416 	blt	r2,r8,10025ac <__kernel_rem_pio2+0xce8>
 100261c:	02000c16 	blt	zero,r8,1002650 <__kernel_rem_pio2+0xd8c>
 1002620:	403ed51e 	bne	r8,zero,1002178 <__kernel_rem_pio2+0x8b4>
 1002624:	0005883a 	mov	r2,zero
 1002628:	0007883a 	mov	r3,zero
 100262c:	003ecc06 	br	1002160 <__kernel_rem_pio2+0x89c>
 1002630:	d8009215 	stw	zero,584(sp)
 1002634:	003cc106 	br	100193c <__kernel_rem_pio2+0x78>
 1002638:	da008f17 	ldw	r8,572(sp)
 100263c:	1009883a 	mov	r4,r2
 1002640:	1805883a 	mov	r2,r3
 1002644:	41000215 	stw	r4,8(r8)
 1002648:	40800315 	stw	r2,12(r8)
 100264c:	003eca06 	br	1002178 <__kernel_rem_pio2+0x8b4>
 1002650:	0005883a 	mov	r2,zero
 1002654:	0007883a 	mov	r3,zero
 1002658:	003f9d06 	br	10024d0 <__kernel_rem_pio2+0xc0c>

0100265c <__kernel_sin>:
 100265c:	00a00034 	movhi	r2,32768
 1002660:	defff404 	addi	sp,sp,-48
 1002664:	10bfffc4 	addi	r2,r2,-1
 1002668:	00cf9034 	movhi	r3,15936
 100266c:	ddc00915 	stw	r23,36(sp)
 1002670:	dd800815 	stw	r22,32(sp)
 1002674:	dc400315 	stw	r17,12(sp)
 1002678:	dc000215 	stw	r16,8(sp)
 100267c:	dfc00b15 	stw	ra,44(sp)
 1002680:	df000a15 	stw	fp,40(sp)
 1002684:	dd400715 	stw	r21,28(sp)
 1002688:	dd000615 	stw	r20,24(sp)
 100268c:	dcc00515 	stw	r19,20(sp)
 1002690:	dc800415 	stw	r18,16(sp)
 1002694:	2884703a 	and	r2,r5,r2
 1002698:	18ffffc4 	addi	r3,r3,-1
 100269c:	2821883a 	mov	r16,r5
 10026a0:	2023883a 	mov	r17,r4
 10026a4:	302f883a 	mov	r23,r6
 10026a8:	382d883a 	mov	r22,r7
 10026ac:	18800216 	blt	r3,r2,10026b8 <__kernel_sin+0x5c>
 10026b0:	100539c0 	call	100539c <__fixdfsi>
 10026b4:	10009926 	beq	r2,zero,100291c <__kernel_sin+0x2c0>
 10026b8:	880d883a 	mov	r6,r17
 10026bc:	800f883a 	mov	r7,r16
 10026c0:	8809883a 	mov	r4,r17
 10026c4:	800b883a 	mov	r5,r16
 10026c8:	10042340 	call	1004234 <__muldf3>
 10026cc:	100d883a 	mov	r6,r2
 10026d0:	180f883a 	mov	r7,r3
 10026d4:	8809883a 	mov	r4,r17
 10026d8:	800b883a 	mov	r5,r16
 10026dc:	1027883a 	mov	r19,r2
 10026e0:	1825883a 	mov	r18,r3
 10026e4:	10042340 	call	1004234 <__muldf3>
 10026e8:	0196b434 	movhi	r6,23248
 10026ec:	01cf79b4 	movhi	r7,15846
 10026f0:	31b55f04 	addi	r6,r6,-10884
 10026f4:	39f64e84 	addi	r7,r7,-9926
 10026f8:	9809883a 	mov	r4,r19
 10026fc:	900b883a 	mov	r5,r18
 1002700:	102b883a 	mov	r21,r2
 1002704:	1829883a 	mov	r20,r3
 1002708:	10042340 	call	1004234 <__muldf3>
 100270c:	01a28b34 	movhi	r6,35372
 1002710:	01cf96f4 	movhi	r7,15963
 1002714:	31a73ac4 	addi	r6,r6,-25365
 1002718:	39f97984 	addi	r7,r7,-6682
 100271c:	1009883a 	mov	r4,r2
 1002720:	180b883a 	mov	r5,r3
 1002724:	1004aa00 	call	1004aa0 <__subdf3>
 1002728:	980d883a 	mov	r6,r19
 100272c:	900f883a 	mov	r7,r18
 1002730:	1009883a 	mov	r4,r2
 1002734:	180b883a 	mov	r5,r3
 1002738:	10042340 	call	1004234 <__muldf3>
 100273c:	0195ecb4 	movhi	r6,22450
 1002740:	01cfb1f4 	movhi	r7,16071
 1002744:	31bf9f44 	addi	r6,r6,-387
 1002748:	39c778c4 	addi	r7,r7,7651
 100274c:	1009883a 	mov	r4,r2
 1002750:	180b883a 	mov	r5,r3
 1002754:	10038240 	call	1003824 <__adddf3>
 1002758:	980d883a 	mov	r6,r19
 100275c:	900f883a 	mov	r7,r18
 1002760:	1009883a 	mov	r4,r2
 1002764:	180b883a 	mov	r5,r3
 1002768:	10042340 	call	1004234 <__muldf3>
 100276c:	01867074 	movhi	r6,6593
 1002770:	01cfcab4 	movhi	r7,16170
 1002774:	31987544 	addi	r6,r6,25045
 1002778:	39c06804 	addi	r7,r7,416
 100277c:	1009883a 	mov	r4,r2
 1002780:	180b883a 	mov	r5,r3
 1002784:	1004aa00 	call	1004aa0 <__subdf3>
 1002788:	980d883a 	mov	r6,r19
 100278c:	900f883a 	mov	r7,r18
 1002790:	1009883a 	mov	r4,r2
 1002794:	180b883a 	mov	r5,r3
 1002798:	10042340 	call	1004234 <__muldf3>
 100279c:	01844474 	movhi	r6,4369
 10027a0:	01cfe074 	movhi	r7,16257
 10027a4:	31be2984 	addi	r6,r6,-1882
 10027a8:	39c44444 	addi	r7,r7,4369
 10027ac:	1009883a 	mov	r4,r2
 10027b0:	180b883a 	mov	r5,r3
 10027b4:	10038240 	call	1003824 <__adddf3>
 10027b8:	1011883a 	mov	r8,r2
 10027bc:	d8800c17 	ldw	r2,48(sp)
 10027c0:	1839883a 	mov	fp,r3
 10027c4:	10003e26 	beq	r2,zero,10028c0 <__kernel_sin+0x264>
 10027c8:	000d883a 	mov	r6,zero
 10027cc:	01cff834 	movhi	r7,16352
 10027d0:	b809883a 	mov	r4,r23
 10027d4:	b00b883a 	mov	r5,r22
 10027d8:	da000015 	stw	r8,0(sp)
 10027dc:	10042340 	call	1004234 <__muldf3>
 10027e0:	da000017 	ldw	r8,0(sp)
 10027e4:	e00f883a 	mov	r7,fp
 10027e8:	a809883a 	mov	r4,r21
 10027ec:	400d883a 	mov	r6,r8
 10027f0:	a00b883a 	mov	r5,r20
 10027f4:	d8c00115 	stw	r3,4(sp)
 10027f8:	d8800015 	stw	r2,0(sp)
 10027fc:	10042340 	call	1004234 <__muldf3>
 1002800:	da800017 	ldw	r10,0(sp)
 1002804:	da400117 	ldw	r9,4(sp)
 1002808:	100d883a 	mov	r6,r2
 100280c:	5009883a 	mov	r4,r10
 1002810:	480b883a 	mov	r5,r9
 1002814:	180f883a 	mov	r7,r3
 1002818:	1004aa00 	call	1004aa0 <__subdf3>
 100281c:	980d883a 	mov	r6,r19
 1002820:	900f883a 	mov	r7,r18
 1002824:	1009883a 	mov	r4,r2
 1002828:	180b883a 	mov	r5,r3
 100282c:	10042340 	call	1004234 <__muldf3>
 1002830:	b80d883a 	mov	r6,r23
 1002834:	b00f883a 	mov	r7,r22
 1002838:	1009883a 	mov	r4,r2
 100283c:	180b883a 	mov	r5,r3
 1002840:	1004aa00 	call	1004aa0 <__subdf3>
 1002844:	01955574 	movhi	r6,21845
 1002848:	01cff174 	movhi	r7,16325
 100284c:	31955244 	addi	r6,r6,21833
 1002850:	39d55544 	addi	r7,r7,21845
 1002854:	a809883a 	mov	r4,r21
 1002858:	a00b883a 	mov	r5,r20
 100285c:	1027883a 	mov	r19,r2
 1002860:	1825883a 	mov	r18,r3
 1002864:	10042340 	call	1004234 <__muldf3>
 1002868:	100d883a 	mov	r6,r2
 100286c:	180f883a 	mov	r7,r3
 1002870:	9809883a 	mov	r4,r19
 1002874:	900b883a 	mov	r5,r18
 1002878:	10038240 	call	1003824 <__adddf3>
 100287c:	100d883a 	mov	r6,r2
 1002880:	180f883a 	mov	r7,r3
 1002884:	8809883a 	mov	r4,r17
 1002888:	800b883a 	mov	r5,r16
 100288c:	1004aa00 	call	1004aa0 <__subdf3>
 1002890:	dfc00b17 	ldw	ra,44(sp)
 1002894:	df000a17 	ldw	fp,40(sp)
 1002898:	ddc00917 	ldw	r23,36(sp)
 100289c:	dd800817 	ldw	r22,32(sp)
 10028a0:	dd400717 	ldw	r21,28(sp)
 10028a4:	dd000617 	ldw	r20,24(sp)
 10028a8:	dcc00517 	ldw	r19,20(sp)
 10028ac:	dc800417 	ldw	r18,16(sp)
 10028b0:	dc400317 	ldw	r17,12(sp)
 10028b4:	dc000217 	ldw	r16,8(sp)
 10028b8:	dec00c04 	addi	sp,sp,48
 10028bc:	f800283a 	ret
 10028c0:	400d883a 	mov	r6,r8
 10028c4:	9809883a 	mov	r4,r19
 10028c8:	900b883a 	mov	r5,r18
 10028cc:	180f883a 	mov	r7,r3
 10028d0:	10042340 	call	1004234 <__muldf3>
 10028d4:	01955574 	movhi	r6,21845
 10028d8:	01cff174 	movhi	r7,16325
 10028dc:	31955244 	addi	r6,r6,21833
 10028e0:	39d55544 	addi	r7,r7,21845
 10028e4:	1009883a 	mov	r4,r2
 10028e8:	180b883a 	mov	r5,r3
 10028ec:	1004aa00 	call	1004aa0 <__subdf3>
 10028f0:	a80d883a 	mov	r6,r21
 10028f4:	a00f883a 	mov	r7,r20
 10028f8:	1009883a 	mov	r4,r2
 10028fc:	180b883a 	mov	r5,r3
 1002900:	10042340 	call	1004234 <__muldf3>
 1002904:	880d883a 	mov	r6,r17
 1002908:	800f883a 	mov	r7,r16
 100290c:	1009883a 	mov	r4,r2
 1002910:	180b883a 	mov	r5,r3
 1002914:	10038240 	call	1003824 <__adddf3>
 1002918:	003fdd06 	br	1002890 <__kernel_sin+0x234>
 100291c:	8805883a 	mov	r2,r17
 1002920:	8007883a 	mov	r3,r16
 1002924:	003fda06 	br	1002890 <__kernel_sin+0x234>

01002928 <fabs>:
 1002928:	00e00034 	movhi	r3,32768
 100292c:	18ffffc4 	addi	r3,r3,-1
 1002930:	2005883a 	mov	r2,r4
 1002934:	28c6703a 	and	r3,r5,r3
 1002938:	f800283a 	ret

0100293c <floor>:
 100293c:	2811d53a 	srai	r8,r5,20
 1002940:	defffa04 	addi	sp,sp,-24
 1002944:	dcc00315 	stw	r19,12(sp)
 1002948:	4201ffcc 	andi	r8,r8,2047
 100294c:	dc800215 	stw	r18,8(sp)
 1002950:	dc400115 	stw	r17,4(sp)
 1002954:	dc000015 	stw	r16,0(sp)
 1002958:	dfc00515 	stw	ra,20(sp)
 100295c:	dd000415 	stw	r20,16(sp)
 1002960:	44bf0044 	addi	r18,r8,-1023
 1002964:	018004c4 	movi	r6,19
 1002968:	2821883a 	mov	r16,r5
 100296c:	2005883a 	mov	r2,r4
 1002970:	280f883a 	mov	r7,r5
 1002974:	2827883a 	mov	r19,r5
 1002978:	2023883a 	mov	r17,r4
 100297c:	34801916 	blt	r6,r18,10029e4 <floor+0xa8>
 1002980:	90003c16 	blt	r18,zero,1002a74 <floor+0x138>
 1002984:	05000434 	movhi	r20,16
 1002988:	a53fffc4 	addi	r20,r20,-1
 100298c:	a4a9d83a 	sra	r20,r20,r18
 1002990:	2d0c703a 	and	r6,r5,r20
 1002994:	310cb03a 	or	r6,r6,r4
 1002998:	30001626 	beq	r6,zero,10029f4 <floor+0xb8>
 100299c:	01a20034 	movhi	r6,34816
 10029a0:	01df8e34 	movhi	r7,32312
 10029a4:	319d6704 	addi	r6,r6,30108
 10029a8:	39f90f04 	addi	r7,r7,-7108
 10029ac:	10038240 	call	1003824 <__adddf3>
 10029b0:	000d883a 	mov	r6,zero
 10029b4:	000f883a 	mov	r7,zero
 10029b8:	1009883a 	mov	r4,r2
 10029bc:	180b883a 	mov	r5,r3
 10029c0:	10041580 	call	1004158 <__gedf2>
 10029c4:	0080040e 	bge	zero,r2,10029d8 <floor+0x9c>
 10029c8:	80003c16 	blt	r16,zero,1002abc <floor+0x180>
 10029cc:	0520303a 	nor	r16,zero,r20
 10029d0:	84e0703a 	and	r16,r16,r19
 10029d4:	0023883a 	mov	r17,zero
 10029d8:	8805883a 	mov	r2,r17
 10029dc:	8007883a 	mov	r3,r16
 10029e0:	00000506 	br	10029f8 <floor+0xbc>
 10029e4:	01800cc4 	movi	r6,51
 10029e8:	34800b0e 	bge	r6,r18,1002a18 <floor+0xdc>
 10029ec:	01810004 	movi	r6,1024
 10029f0:	91802f26 	beq	r18,r6,1002ab0 <floor+0x174>
 10029f4:	3807883a 	mov	r3,r7
 10029f8:	dfc00517 	ldw	ra,20(sp)
 10029fc:	dd000417 	ldw	r20,16(sp)
 1002a00:	dcc00317 	ldw	r19,12(sp)
 1002a04:	dc800217 	ldw	r18,8(sp)
 1002a08:	dc400117 	ldw	r17,4(sp)
 1002a0c:	dc000017 	ldw	r16,0(sp)
 1002a10:	dec00604 	addi	sp,sp,24
 1002a14:	f800283a 	ret
 1002a18:	423efb44 	addi	r8,r8,-1043
 1002a1c:	053fffc4 	movi	r20,-1
 1002a20:	a228d83a 	srl	r20,r20,r8
 1002a24:	250c703a 	and	r6,r4,r20
 1002a28:	303ff226 	beq	r6,zero,10029f4 <floor+0xb8>
 1002a2c:	01a20034 	movhi	r6,34816
 1002a30:	01df8e34 	movhi	r7,32312
 1002a34:	319d6704 	addi	r6,r6,30108
 1002a38:	39f90f04 	addi	r7,r7,-7108
 1002a3c:	10038240 	call	1003824 <__adddf3>
 1002a40:	000d883a 	mov	r6,zero
 1002a44:	000f883a 	mov	r7,zero
 1002a48:	1009883a 	mov	r4,r2
 1002a4c:	180b883a 	mov	r5,r3
 1002a50:	10041580 	call	1004158 <__gedf2>
 1002a54:	00bfe00e 	bge	zero,r2,10029d8 <floor+0x9c>
 1002a58:	80001c16 	blt	r16,zero,1002acc <floor+0x190>
 1002a5c:	0510303a 	nor	r8,zero,r20
 1002a60:	9821883a 	mov	r16,r19
 1002a64:	8a22703a 	and	r17,r17,r8
 1002a68:	8805883a 	mov	r2,r17
 1002a6c:	8007883a 	mov	r3,r16
 1002a70:	003fe106 	br	10029f8 <floor+0xbc>
 1002a74:	01a20034 	movhi	r6,34816
 1002a78:	01df8e34 	movhi	r7,32312
 1002a7c:	319d6704 	addi	r6,r6,30108
 1002a80:	39f90f04 	addi	r7,r7,-7108
 1002a84:	10038240 	call	1003824 <__adddf3>
 1002a88:	000d883a 	mov	r6,zero
 1002a8c:	000f883a 	mov	r7,zero
 1002a90:	1009883a 	mov	r4,r2
 1002a94:	180b883a 	mov	r5,r3
 1002a98:	10041580 	call	1004158 <__gedf2>
 1002a9c:	00bfce0e 	bge	zero,r2,10029d8 <floor+0x9c>
 1002aa0:	80001516 	blt	r16,zero,1002af8 <floor+0x1bc>
 1002aa4:	0023883a 	mov	r17,zero
 1002aa8:	0021883a 	mov	r16,zero
 1002aac:	003fca06 	br	10029d8 <floor+0x9c>
 1002ab0:	200d883a 	mov	r6,r4
 1002ab4:	10038240 	call	1003824 <__adddf3>
 1002ab8:	003fcf06 	br	10029f8 <floor+0xbc>
 1002abc:	00800434 	movhi	r2,16
 1002ac0:	14a5d83a 	sra	r18,r2,r18
 1002ac4:	84a7883a 	add	r19,r16,r18
 1002ac8:	003fc006 	br	10029cc <floor+0x90>
 1002acc:	00800504 	movi	r2,20
 1002ad0:	90801326 	beq	r18,r2,1002b20 <floor+0x1e4>
 1002ad4:	00800d04 	movi	r2,52
 1002ad8:	14a5c83a 	sub	r18,r2,r18
 1002adc:	00800044 	movi	r2,1
 1002ae0:	1484983a 	sll	r2,r2,r18
 1002ae4:	1445883a 	add	r2,r2,r17
 1002ae8:	14400b2e 	bgeu	r2,r17,1002b18 <floor+0x1dc>
 1002aec:	84c00044 	addi	r19,r16,1
 1002af0:	1023883a 	mov	r17,r2
 1002af4:	003fd906 	br	1002a5c <floor+0x120>
 1002af8:	00a00034 	movhi	r2,32768
 1002afc:	10bfffc4 	addi	r2,r2,-1
 1002b00:	8084703a 	and	r2,r16,r2
 1002b04:	1462b03a 	or	r17,r2,r17
 1002b08:	883fb326 	beq	r17,zero,10029d8 <floor+0x9c>
 1002b0c:	0023883a 	mov	r17,zero
 1002b10:	042ffc34 	movhi	r16,49136
 1002b14:	003fb006 	br	10029d8 <floor+0x9c>
 1002b18:	1023883a 	mov	r17,r2
 1002b1c:	003fcf06 	br	1002a5c <floor+0x120>
 1002b20:	84c00044 	addi	r19,r16,1
 1002b24:	003fcd06 	br	1002a5c <floor+0x120>

01002b28 <scalbn>:
 1002b28:	2a1ffc2c 	andhi	r8,r5,32752
 1002b2c:	4011d53a 	srai	r8,r8,20
 1002b30:	defffe04 	addi	sp,sp,-8
 1002b34:	dc000015 	stw	r16,0(sp)
 1002b38:	dfc00115 	stw	ra,4(sp)
 1002b3c:	280f883a 	mov	r7,r5
 1002b40:	2015883a 	mov	r10,r4
 1002b44:	3021883a 	mov	r16,r6
 1002b48:	40001e1e 	bne	r8,zero,1002bc4 <scalbn+0x9c>
 1002b4c:	00a00034 	movhi	r2,32768
 1002b50:	10bfffc4 	addi	r2,r2,-1
 1002b54:	2884703a 	and	r2,r5,r2
 1002b58:	1104b03a 	or	r2,r2,r4
 1002b5c:	10002226 	beq	r2,zero,1002be8 <scalbn+0xc0>
 1002b60:	01d0d434 	movhi	r7,17232
 1002b64:	000d883a 	mov	r6,zero
 1002b68:	10042340 	call	1004234 <__muldf3>
 1002b6c:	013ffff4 	movhi	r4,65535
 1002b70:	210f2c04 	addi	r4,r4,15536
 1002b74:	1015883a 	mov	r10,r2
 1002b78:	180f883a 	mov	r7,r3
 1002b7c:	81002a16 	blt	r16,r4,1002c28 <scalbn+0x100>
 1002b80:	191ffc2c 	andhi	r4,r3,32752
 1002b84:	2009d53a 	srai	r4,r4,20
 1002b88:	223ff284 	addi	r8,r4,-54
 1002b8c:	8211883a 	add	r8,r16,r8
 1002b90:	0081ff84 	movi	r2,2046
 1002b94:	12002f16 	blt	r2,r8,1002c54 <scalbn+0x12c>
 1002b98:	0200190e 	bge	zero,r8,1002c00 <scalbn+0xd8>
 1002b9c:	4010953a 	slli	r8,r8,20
 1002ba0:	01600434 	movhi	r5,32784
 1002ba4:	297fffc4 	addi	r5,r5,-1
 1002ba8:	194e703a 	and	r7,r3,r5
 1002bac:	5005883a 	mov	r2,r10
 1002bb0:	3a06b03a 	or	r3,r7,r8
 1002bb4:	dfc00117 	ldw	ra,4(sp)
 1002bb8:	dc000017 	ldw	r16,0(sp)
 1002bbc:	dec00204 	addi	sp,sp,8
 1002bc0:	f800283a 	ret
 1002bc4:	0081ffc4 	movi	r2,2047
 1002bc8:	2807883a 	mov	r3,r5
 1002bcc:	40bfef1e 	bne	r8,r2,1002b8c <scalbn+0x64>
 1002bd0:	200d883a 	mov	r6,r4
 1002bd4:	10038240 	call	1003824 <__adddf3>
 1002bd8:	dfc00117 	ldw	ra,4(sp)
 1002bdc:	dc000017 	ldw	r16,0(sp)
 1002be0:	dec00204 	addi	sp,sp,8
 1002be4:	f800283a 	ret
 1002be8:	2005883a 	mov	r2,r4
 1002bec:	2807883a 	mov	r3,r5
 1002bf0:	dfc00117 	ldw	ra,4(sp)
 1002bf4:	dc000017 	ldw	r16,0(sp)
 1002bf8:	dec00204 	addi	sp,sp,8
 1002bfc:	f800283a 	ret
 1002c00:	00bff2c4 	movi	r2,-53
 1002c04:	4080240e 	bge	r8,r2,1002c98 <scalbn+0x170>
 1002c08:	00b0d414 	movui	r2,50000
 1002c0c:	14001116 	blt	r2,r16,1002c54 <scalbn+0x12c>
 1002c10:	0130be74 	movhi	r4,49913
 1002c14:	01406974 	movhi	r5,421
 1002c18:	213cd644 	addi	r4,r4,-3239
 1002c1c:	295b87c4 	addi	r5,r5,28191
 1002c20:	500d883a 	mov	r6,r10
 1002c24:	1002cc40 	call	1002cc4 <copysign>
 1002c28:	01b0be74 	movhi	r6,49913
 1002c2c:	01c06974 	movhi	r7,421
 1002c30:	31bcd644 	addi	r6,r6,-3239
 1002c34:	39db87c4 	addi	r7,r7,28191
 1002c38:	1009883a 	mov	r4,r2
 1002c3c:	180b883a 	mov	r5,r3
 1002c40:	10042340 	call	1004234 <__muldf3>
 1002c44:	dfc00117 	ldw	ra,4(sp)
 1002c48:	dc000017 	ldw	r16,0(sp)
 1002c4c:	dec00204 	addi	sp,sp,8
 1002c50:	f800283a 	ret
 1002c54:	01220034 	movhi	r4,34816
 1002c58:	015f8e34 	movhi	r5,32312
 1002c5c:	500d883a 	mov	r6,r10
 1002c60:	211d6704 	addi	r4,r4,30108
 1002c64:	29790f04 	addi	r5,r5,-7108
 1002c68:	1002cc40 	call	1002cc4 <copysign>
 1002c6c:	01a20034 	movhi	r6,34816
 1002c70:	01df8e34 	movhi	r7,32312
 1002c74:	319d6704 	addi	r6,r6,30108
 1002c78:	39f90f04 	addi	r7,r7,-7108
 1002c7c:	1009883a 	mov	r4,r2
 1002c80:	180b883a 	mov	r5,r3
 1002c84:	10042340 	call	1004234 <__muldf3>
 1002c88:	dfc00117 	ldw	ra,4(sp)
 1002c8c:	dc000017 	ldw	r16,0(sp)
 1002c90:	dec00204 	addi	sp,sp,8
 1002c94:	f800283a 	ret
 1002c98:	42000d84 	addi	r8,r8,54
 1002c9c:	4012953a 	slli	r9,r8,20
 1002ca0:	01e00434 	movhi	r7,32784
 1002ca4:	39ffffc4 	addi	r7,r7,-1
 1002ca8:	19ca703a 	and	r5,r3,r7
 1002cac:	000d883a 	mov	r6,zero
 1002cb0:	01cf2434 	movhi	r7,15504
 1002cb4:	5009883a 	mov	r4,r10
 1002cb8:	494ab03a 	or	r5,r9,r5
 1002cbc:	10042340 	call	1004234 <__muldf3>
 1002cc0:	003fbc06 	br	1002bb4 <scalbn+0x8c>

01002cc4 <copysign>:
 1002cc4:	2005883a 	mov	r2,r4
 1002cc8:	01200034 	movhi	r4,32768
 1002ccc:	213fffc4 	addi	r4,r4,-1
 1002cd0:	38e0002c 	andhi	r3,r7,32768
 1002cd4:	290a703a 	and	r5,r5,r4
 1002cd8:	28c6b03a 	or	r3,r5,r3
 1002cdc:	f800283a 	ret

01002ce0 <__divsi3>:
 1002ce0:	20001b16 	blt	r4,zero,1002d50 <__divsi3+0x70>
 1002ce4:	000f883a 	mov	r7,zero
 1002ce8:	28001616 	blt	r5,zero,1002d44 <__divsi3+0x64>
 1002cec:	200d883a 	mov	r6,r4
 1002cf0:	29001a2e 	bgeu	r5,r4,1002d5c <__divsi3+0x7c>
 1002cf4:	00800804 	movi	r2,32
 1002cf8:	00c00044 	movi	r3,1
 1002cfc:	00000106 	br	1002d04 <__divsi3+0x24>
 1002d00:	10000d26 	beq	r2,zero,1002d38 <__divsi3+0x58>
 1002d04:	294b883a 	add	r5,r5,r5
 1002d08:	10bfffc4 	addi	r2,r2,-1
 1002d0c:	18c7883a 	add	r3,r3,r3
 1002d10:	293ffb36 	bltu	r5,r4,1002d00 <__divsi3+0x20>
 1002d14:	0005883a 	mov	r2,zero
 1002d18:	18000726 	beq	r3,zero,1002d38 <__divsi3+0x58>
 1002d1c:	0005883a 	mov	r2,zero
 1002d20:	31400236 	bltu	r6,r5,1002d2c <__divsi3+0x4c>
 1002d24:	314dc83a 	sub	r6,r6,r5
 1002d28:	10c4b03a 	or	r2,r2,r3
 1002d2c:	1806d07a 	srli	r3,r3,1
 1002d30:	280ad07a 	srli	r5,r5,1
 1002d34:	183ffa1e 	bne	r3,zero,1002d20 <__divsi3+0x40>
 1002d38:	38000126 	beq	r7,zero,1002d40 <__divsi3+0x60>
 1002d3c:	0085c83a 	sub	r2,zero,r2
 1002d40:	f800283a 	ret
 1002d44:	014bc83a 	sub	r5,zero,r5
 1002d48:	39c0005c 	xori	r7,r7,1
 1002d4c:	003fe706 	br	1002cec <__divsi3+0xc>
 1002d50:	0109c83a 	sub	r4,zero,r4
 1002d54:	01c00044 	movi	r7,1
 1002d58:	003fe306 	br	1002ce8 <__divsi3+0x8>
 1002d5c:	00c00044 	movi	r3,1
 1002d60:	003fee06 	br	1002d1c <__divsi3+0x3c>

01002d64 <__modsi3>:
 1002d64:	20001716 	blt	r4,zero,1002dc4 <__modsi3+0x60>
 1002d68:	000f883a 	mov	r7,zero
 1002d6c:	2005883a 	mov	r2,r4
 1002d70:	28001216 	blt	r5,zero,1002dbc <__modsi3+0x58>
 1002d74:	2900162e 	bgeu	r5,r4,1002dd0 <__modsi3+0x6c>
 1002d78:	01800804 	movi	r6,32
 1002d7c:	00c00044 	movi	r3,1
 1002d80:	00000106 	br	1002d88 <__modsi3+0x24>
 1002d84:	30000a26 	beq	r6,zero,1002db0 <__modsi3+0x4c>
 1002d88:	294b883a 	add	r5,r5,r5
 1002d8c:	31bfffc4 	addi	r6,r6,-1
 1002d90:	18c7883a 	add	r3,r3,r3
 1002d94:	293ffb36 	bltu	r5,r4,1002d84 <__modsi3+0x20>
 1002d98:	18000526 	beq	r3,zero,1002db0 <__modsi3+0x4c>
 1002d9c:	1806d07a 	srli	r3,r3,1
 1002da0:	11400136 	bltu	r2,r5,1002da8 <__modsi3+0x44>
 1002da4:	1145c83a 	sub	r2,r2,r5
 1002da8:	280ad07a 	srli	r5,r5,1
 1002dac:	183ffb1e 	bne	r3,zero,1002d9c <__modsi3+0x38>
 1002db0:	38000126 	beq	r7,zero,1002db8 <__modsi3+0x54>
 1002db4:	0085c83a 	sub	r2,zero,r2
 1002db8:	f800283a 	ret
 1002dbc:	014bc83a 	sub	r5,zero,r5
 1002dc0:	003fec06 	br	1002d74 <__modsi3+0x10>
 1002dc4:	0109c83a 	sub	r4,zero,r4
 1002dc8:	01c00044 	movi	r7,1
 1002dcc:	003fe706 	br	1002d6c <__modsi3+0x8>
 1002dd0:	00c00044 	movi	r3,1
 1002dd4:	003ff106 	br	1002d9c <__modsi3+0x38>

01002dd8 <__udivsi3>:
 1002dd8:	200d883a 	mov	r6,r4
 1002ddc:	2900152e 	bgeu	r5,r4,1002e34 <__udivsi3+0x5c>
 1002de0:	28001416 	blt	r5,zero,1002e34 <__udivsi3+0x5c>
 1002de4:	00800804 	movi	r2,32
 1002de8:	00c00044 	movi	r3,1
 1002dec:	00000206 	br	1002df8 <__udivsi3+0x20>
 1002df0:	10000e26 	beq	r2,zero,1002e2c <__udivsi3+0x54>
 1002df4:	28000516 	blt	r5,zero,1002e0c <__udivsi3+0x34>
 1002df8:	294b883a 	add	r5,r5,r5
 1002dfc:	10bfffc4 	addi	r2,r2,-1
 1002e00:	18c7883a 	add	r3,r3,r3
 1002e04:	293ffa36 	bltu	r5,r4,1002df0 <__udivsi3+0x18>
 1002e08:	18000826 	beq	r3,zero,1002e2c <__udivsi3+0x54>
 1002e0c:	0005883a 	mov	r2,zero
 1002e10:	31400236 	bltu	r6,r5,1002e1c <__udivsi3+0x44>
 1002e14:	314dc83a 	sub	r6,r6,r5
 1002e18:	10c4b03a 	or	r2,r2,r3
 1002e1c:	1806d07a 	srli	r3,r3,1
 1002e20:	280ad07a 	srli	r5,r5,1
 1002e24:	183ffa1e 	bne	r3,zero,1002e10 <__udivsi3+0x38>
 1002e28:	f800283a 	ret
 1002e2c:	0005883a 	mov	r2,zero
 1002e30:	f800283a 	ret
 1002e34:	00c00044 	movi	r3,1
 1002e38:	003ff406 	br	1002e0c <__udivsi3+0x34>

01002e3c <__umodsi3>:
 1002e3c:	2005883a 	mov	r2,r4
 1002e40:	2900122e 	bgeu	r5,r4,1002e8c <__umodsi3+0x50>
 1002e44:	28001116 	blt	r5,zero,1002e8c <__umodsi3+0x50>
 1002e48:	01800804 	movi	r6,32
 1002e4c:	00c00044 	movi	r3,1
 1002e50:	00000206 	br	1002e5c <__umodsi3+0x20>
 1002e54:	30000c26 	beq	r6,zero,1002e88 <__umodsi3+0x4c>
 1002e58:	28000516 	blt	r5,zero,1002e70 <__umodsi3+0x34>
 1002e5c:	294b883a 	add	r5,r5,r5
 1002e60:	31bfffc4 	addi	r6,r6,-1
 1002e64:	18c7883a 	add	r3,r3,r3
 1002e68:	293ffa36 	bltu	r5,r4,1002e54 <__umodsi3+0x18>
 1002e6c:	18000626 	beq	r3,zero,1002e88 <__umodsi3+0x4c>
 1002e70:	1806d07a 	srli	r3,r3,1
 1002e74:	11400136 	bltu	r2,r5,1002e7c <__umodsi3+0x40>
 1002e78:	1145c83a 	sub	r2,r2,r5
 1002e7c:	280ad07a 	srli	r5,r5,1
 1002e80:	183ffb1e 	bne	r3,zero,1002e70 <__umodsi3+0x34>
 1002e84:	f800283a 	ret
 1002e88:	f800283a 	ret
 1002e8c:	00c00044 	movi	r3,1
 1002e90:	003ff706 	br	1002e70 <__umodsi3+0x34>

01002e94 <__mulsi3>:
 1002e94:	0005883a 	mov	r2,zero
 1002e98:	20000726 	beq	r4,zero,1002eb8 <__mulsi3+0x24>
 1002e9c:	20c0004c 	andi	r3,r4,1
 1002ea0:	2008d07a 	srli	r4,r4,1
 1002ea4:	18000126 	beq	r3,zero,1002eac <__mulsi3+0x18>
 1002ea8:	1145883a 	add	r2,r2,r5
 1002eac:	294b883a 	add	r5,r5,r5
 1002eb0:	203ffa1e 	bne	r4,zero,1002e9c <__mulsi3+0x8>
 1002eb4:	f800283a 	ret
 1002eb8:	f800283a 	ret

01002ebc <__addsf3>:
 1002ebc:	defffc04 	addi	sp,sp,-16
 1002ec0:	2004d7fa 	srli	r2,r4,31
 1002ec4:	280cd5fa 	srli	r6,r5,23
 1002ec8:	dc000015 	stw	r16,0(sp)
 1002ecc:	00c02034 	movhi	r3,128
 1002ed0:	2020d5fa 	srli	r16,r4,23
 1002ed4:	280ed7fa 	srli	r7,r5,31
 1002ed8:	18ffffc4 	addi	r3,r3,-1
 1002edc:	dc400115 	stw	r17,4(sp)
 1002ee0:	1908703a 	and	r4,r3,r4
 1002ee4:	194a703a 	and	r5,r3,r5
 1002ee8:	dfc00315 	stw	ra,12(sp)
 1002eec:	dc800215 	stw	r18,8(sp)
 1002ef0:	14403fcc 	andi	r17,r2,255
 1002ef4:	84003fcc 	andi	r16,r16,255
 1002ef8:	200890fa 	slli	r4,r4,3
 1002efc:	31803fcc 	andi	r6,r6,255
 1002f00:	280a90fa 	slli	r5,r5,3
 1002f04:	89c05026 	beq	r17,r7,1003048 <__addsf3+0x18c>
 1002f08:	8185c83a 	sub	r2,r16,r6
 1002f0c:	00807a0e 	bge	zero,r2,10030f8 <__addsf3+0x23c>
 1002f10:	30001e1e 	bne	r6,zero,1002f8c <__addsf3+0xd0>
 1002f14:	28006d1e 	bne	r5,zero,10030cc <__addsf3+0x210>
 1002f18:	208001cc 	andi	r2,r4,7
 1002f1c:	10000426 	beq	r2,zero,1002f30 <__addsf3+0x74>
 1002f20:	208003cc 	andi	r2,r4,15
 1002f24:	00c00104 	movi	r3,4
 1002f28:	10c00126 	beq	r2,r3,1002f30 <__addsf3+0x74>
 1002f2c:	20c9883a 	add	r4,r4,r3
 1002f30:	2081002c 	andhi	r2,r4,1024
 1002f34:	10003926 	beq	r2,zero,100301c <__addsf3+0x160>
 1002f38:	84000044 	addi	r16,r16,1
 1002f3c:	00803fc4 	movi	r2,255
 1002f40:	80807826 	beq	r16,r2,1003124 <__addsf3+0x268>
 1002f44:	200891ba 	slli	r4,r4,6
 1002f48:	8805883a 	mov	r2,r17
 1002f4c:	2008d27a 	srli	r4,r4,9
 1002f50:	84003fcc 	andi	r16,r16,255
 1002f54:	800695fa 	slli	r3,r16,23
 1002f58:	10803fcc 	andi	r2,r2,255
 1002f5c:	04002034 	movhi	r16,128
 1002f60:	843fffc4 	addi	r16,r16,-1
 1002f64:	100497fa 	slli	r2,r2,31
 1002f68:	2408703a 	and	r4,r4,r16
 1002f6c:	20e0b03a 	or	r16,r4,r3
 1002f70:	8084b03a 	or	r2,r16,r2
 1002f74:	dfc00317 	ldw	ra,12(sp)
 1002f78:	dc800217 	ldw	r18,8(sp)
 1002f7c:	dc400117 	ldw	r17,4(sp)
 1002f80:	dc000017 	ldw	r16,0(sp)
 1002f84:	dec00404 	addi	sp,sp,16
 1002f88:	f800283a 	ret
 1002f8c:	00c03fc4 	movi	r3,255
 1002f90:	80ffe126 	beq	r16,r3,1002f18 <__addsf3+0x5c>
 1002f94:	29410034 	orhi	r5,r5,1024
 1002f98:	00c006c4 	movi	r3,27
 1002f9c:	18807516 	blt	r3,r2,1003174 <__addsf3+0x2b8>
 1002fa0:	00c00804 	movi	r3,32
 1002fa4:	1887c83a 	sub	r3,r3,r2
 1002fa8:	28c6983a 	sll	r3,r5,r3
 1002fac:	288ad83a 	srl	r5,r5,r2
 1002fb0:	1804c03a 	cmpne	r2,r3,zero
 1002fb4:	288ab03a 	or	r5,r5,r2
 1002fb8:	2149c83a 	sub	r4,r4,r5
 1002fbc:	2081002c 	andhi	r2,r4,1024
 1002fc0:	10001426 	beq	r2,zero,1003014 <__addsf3+0x158>
 1002fc4:	04810034 	movhi	r18,1024
 1002fc8:	94bfffc4 	addi	r18,r18,-1
 1002fcc:	24a4703a 	and	r18,r4,r18
 1002fd0:	9009883a 	mov	r4,r18
 1002fd4:	10056a00 	call	10056a0 <__clzsi2>
 1002fd8:	10bffec4 	addi	r2,r2,-5
 1002fdc:	90a4983a 	sll	r18,r18,r2
 1002fe0:	14005416 	blt	r2,r16,1003134 <__addsf3+0x278>
 1002fe4:	1405c83a 	sub	r2,r2,r16
 1002fe8:	11000044 	addi	r4,r2,1
 1002fec:	00800804 	movi	r2,32
 1002ff0:	1105c83a 	sub	r2,r2,r4
 1002ff4:	9084983a 	sll	r2,r18,r2
 1002ff8:	9124d83a 	srl	r18,r18,r4
 1002ffc:	0021883a 	mov	r16,zero
 1003000:	1008c03a 	cmpne	r4,r2,zero
 1003004:	9108b03a 	or	r4,r18,r4
 1003008:	003fc306 	br	1002f18 <__addsf3+0x5c>
 100300c:	1000db26 	beq	r2,zero,100337c <__addsf3+0x4c0>
 1003010:	1009883a 	mov	r4,r2
 1003014:	208001cc 	andi	r2,r4,7
 1003018:	103fc11e 	bne	r2,zero,1002f20 <__addsf3+0x64>
 100301c:	2006d0fa 	srli	r3,r4,3
 1003020:	01003fc4 	movi	r4,255
 1003024:	8805883a 	mov	r2,r17
 1003028:	8100241e 	bne	r16,r4,10030bc <__addsf3+0x200>
 100302c:	18006e26 	beq	r3,zero,10031e8 <__addsf3+0x32c>
 1003030:	19001034 	orhi	r4,r3,64
 1003034:	00c02034 	movhi	r3,128
 1003038:	18ffffc4 	addi	r3,r3,-1
 100303c:	043fffc4 	movi	r16,-1
 1003040:	20c8703a 	and	r4,r4,r3
 1003044:	003fc206 	br	1002f50 <__addsf3+0x94>
 1003048:	8187c83a 	sub	r3,r16,r6
 100304c:	00c03e0e 	bge	zero,r3,1003148 <__addsf3+0x28c>
 1003050:	30002326 	beq	r6,zero,10030e0 <__addsf3+0x224>
 1003054:	01803fc4 	movi	r6,255
 1003058:	81bfaf26 	beq	r16,r6,1002f18 <__addsf3+0x5c>
 100305c:	29410034 	orhi	r5,r5,1024
 1003060:	018006c4 	movi	r6,27
 1003064:	30c07416 	blt	r6,r3,1003238 <__addsf3+0x37c>
 1003068:	01800804 	movi	r6,32
 100306c:	30cdc83a 	sub	r6,r6,r3
 1003070:	298c983a 	sll	r6,r5,r6
 1003074:	28cad83a 	srl	r5,r5,r3
 1003078:	3006c03a 	cmpne	r3,r6,zero
 100307c:	28cab03a 	or	r5,r5,r3
 1003080:	2149883a 	add	r4,r4,r5
 1003084:	20c1002c 	andhi	r3,r4,1024
 1003088:	183fe226 	beq	r3,zero,1003014 <__addsf3+0x158>
 100308c:	84000044 	addi	r16,r16,1
 1003090:	00c03fc4 	movi	r3,255
 1003094:	80c05426 	beq	r16,r3,10031e8 <__addsf3+0x32c>
 1003098:	00bf0034 	movhi	r2,64512
 100309c:	10bfffc4 	addi	r2,r2,-1
 10030a0:	20c0004c 	andi	r3,r4,1
 10030a4:	2088703a 	and	r4,r4,r2
 10030a8:	2008d07a 	srli	r4,r4,1
 10030ac:	20c8b03a 	or	r4,r4,r3
 10030b0:	003f9906 	br	1002f18 <__addsf3+0x5c>
 10030b4:	0007883a 	mov	r3,zero
 10030b8:	0005883a 	mov	r2,zero
 10030bc:	01002034 	movhi	r4,128
 10030c0:	213fffc4 	addi	r4,r4,-1
 10030c4:	1908703a 	and	r4,r3,r4
 10030c8:	003fa106 	br	1002f50 <__addsf3+0x94>
 10030cc:	10bfffc4 	addi	r2,r2,-1
 10030d0:	103fb926 	beq	r2,zero,1002fb8 <__addsf3+0xfc>
 10030d4:	00c03fc4 	movi	r3,255
 10030d8:	80ffaf1e 	bne	r16,r3,1002f98 <__addsf3+0xdc>
 10030dc:	003f8e06 	br	1002f18 <__addsf3+0x5c>
 10030e0:	283f8d26 	beq	r5,zero,1002f18 <__addsf3+0x5c>
 10030e4:	18ffffc4 	addi	r3,r3,-1
 10030e8:	183fe526 	beq	r3,zero,1003080 <__addsf3+0x1c4>
 10030ec:	01803fc4 	movi	r6,255
 10030f0:	81bfdb1e 	bne	r16,r6,1003060 <__addsf3+0x1a4>
 10030f4:	003f8806 	br	1002f18 <__addsf3+0x5c>
 10030f8:	1000201e 	bne	r2,zero,100317c <__addsf3+0x2c0>
 10030fc:	80800044 	addi	r2,r16,1
 1003100:	10803fcc 	andi	r2,r2,255
 1003104:	01800044 	movi	r6,1
 1003108:	3080450e 	bge	r6,r2,1003220 <__addsf3+0x364>
 100310c:	2165c83a 	sub	r18,r4,r5
 1003110:	90c1002c 	andhi	r3,r18,1024
 1003114:	18002b26 	beq	r3,zero,10031c4 <__addsf3+0x308>
 1003118:	2925c83a 	sub	r18,r5,r4
 100311c:	3823883a 	mov	r17,r7
 1003120:	003fab06 	br	1002fd0 <__addsf3+0x114>
 1003124:	8805883a 	mov	r2,r17
 1003128:	043fffc4 	movi	r16,-1
 100312c:	0009883a 	mov	r4,zero
 1003130:	003f8706 	br	1002f50 <__addsf3+0x94>
 1003134:	013f0034 	movhi	r4,64512
 1003138:	213fffc4 	addi	r4,r4,-1
 100313c:	80a1c83a 	sub	r16,r16,r2
 1003140:	9108703a 	and	r4,r18,r4
 1003144:	003f7406 	br	1002f18 <__addsf3+0x5c>
 1003148:	1800411e 	bne	r3,zero,1003250 <__addsf3+0x394>
 100314c:	80c00044 	addi	r3,r16,1
 1003150:	19c03fcc 	andi	r7,r3,255
 1003154:	01800044 	movi	r6,1
 1003158:	31c0260e 	bge	r6,r7,10031f4 <__addsf3+0x338>
 100315c:	01803fc4 	movi	r6,255
 1003160:	19802126 	beq	r3,r6,10031e8 <__addsf3+0x32c>
 1003164:	2149883a 	add	r4,r4,r5
 1003168:	2008d07a 	srli	r4,r4,1
 100316c:	1821883a 	mov	r16,r3
 1003170:	003f6906 	br	1002f18 <__addsf3+0x5c>
 1003174:	01400044 	movi	r5,1
 1003178:	003f8f06 	br	1002fb8 <__addsf3+0xfc>
 100317c:	8000151e 	bne	r16,zero,10031d4 <__addsf3+0x318>
 1003180:	20002f26 	beq	r4,zero,1003240 <__addsf3+0x384>
 1003184:	0084303a 	nor	r2,zero,r2
 1003188:	10000a26 	beq	r2,zero,10031b4 <__addsf3+0x2f8>
 100318c:	00c03fc4 	movi	r3,255
 1003190:	30c02b26 	beq	r6,r3,1003240 <__addsf3+0x384>
 1003194:	00c006c4 	movi	r3,27
 1003198:	18806d16 	blt	r3,r2,1003350 <__addsf3+0x494>
 100319c:	00c00804 	movi	r3,32
 10031a0:	1887c83a 	sub	r3,r3,r2
 10031a4:	20c6983a 	sll	r3,r4,r3
 10031a8:	2084d83a 	srl	r2,r4,r2
 10031ac:	1808c03a 	cmpne	r4,r3,zero
 10031b0:	1108b03a 	or	r4,r2,r4
 10031b4:	2909c83a 	sub	r4,r5,r4
 10031b8:	3021883a 	mov	r16,r6
 10031bc:	3823883a 	mov	r17,r7
 10031c0:	003f7e06 	br	1002fbc <__addsf3+0x100>
 10031c4:	903f821e 	bne	r18,zero,1002fd0 <__addsf3+0x114>
 10031c8:	0005883a 	mov	r2,zero
 10031cc:	0021883a 	mov	r16,zero
 10031d0:	003fba06 	br	10030bc <__addsf3+0x200>
 10031d4:	00c03fc4 	movi	r3,255
 10031d8:	30c01926 	beq	r6,r3,1003240 <__addsf3+0x384>
 10031dc:	0085c83a 	sub	r2,zero,r2
 10031e0:	21010034 	orhi	r4,r4,1024
 10031e4:	003feb06 	br	1003194 <__addsf3+0x2d8>
 10031e8:	043fffc4 	movi	r16,-1
 10031ec:	0009883a 	mov	r4,zero
 10031f0:	003f5706 	br	1002f50 <__addsf3+0x94>
 10031f4:	80004a1e 	bne	r16,zero,1003320 <__addsf3+0x464>
 10031f8:	20005926 	beq	r4,zero,1003360 <__addsf3+0x4a4>
 10031fc:	283f4626 	beq	r5,zero,1002f18 <__addsf3+0x5c>
 1003200:	2149883a 	add	r4,r4,r5
 1003204:	2081002c 	andhi	r2,r4,1024
 1003208:	103f8226 	beq	r2,zero,1003014 <__addsf3+0x158>
 100320c:	00bf0034 	movhi	r2,64512
 1003210:	10bfffc4 	addi	r2,r2,-1
 1003214:	3021883a 	mov	r16,r6
 1003218:	2088703a 	and	r4,r4,r2
 100321c:	003f3e06 	br	1002f18 <__addsf3+0x5c>
 1003220:	8000121e 	bne	r16,zero,100326c <__addsf3+0x3b0>
 1003224:	2000261e 	bne	r4,zero,10032c0 <__addsf3+0x404>
 1003228:	283fa226 	beq	r5,zero,10030b4 <__addsf3+0x1f8>
 100322c:	2809883a 	mov	r4,r5
 1003230:	3823883a 	mov	r17,r7
 1003234:	003f3806 	br	1002f18 <__addsf3+0x5c>
 1003238:	01400044 	movi	r5,1
 100323c:	003f9006 	br	1003080 <__addsf3+0x1c4>
 1003240:	2809883a 	mov	r4,r5
 1003244:	3021883a 	mov	r16,r6
 1003248:	3823883a 	mov	r17,r7
 100324c:	003f3206 	br	1002f18 <__addsf3+0x5c>
 1003250:	80000c1e 	bne	r16,zero,1003284 <__addsf3+0x3c8>
 1003254:	20002f26 	beq	r4,zero,1003314 <__addsf3+0x458>
 1003258:	00c6303a 	nor	r3,zero,r3
 100325c:	18002b1e 	bne	r3,zero,100330c <__addsf3+0x450>
 1003260:	2149883a 	add	r4,r4,r5
 1003264:	3021883a 	mov	r16,r6
 1003268:	003f8606 	br	1003084 <__addsf3+0x1c8>
 100326c:	20001b1e 	bne	r4,zero,10032dc <__addsf3+0x420>
 1003270:	28003926 	beq	r5,zero,1003358 <__addsf3+0x49c>
 1003274:	2809883a 	mov	r4,r5
 1003278:	3823883a 	mov	r17,r7
 100327c:	04003fc4 	movi	r16,255
 1003280:	003f2506 	br	1002f18 <__addsf3+0x5c>
 1003284:	01c03fc4 	movi	r7,255
 1003288:	31c02226 	beq	r6,r7,1003314 <__addsf3+0x458>
 100328c:	00c7c83a 	sub	r3,zero,r3
 1003290:	21010034 	orhi	r4,r4,1024
 1003294:	01c006c4 	movi	r7,27
 1003298:	38c03616 	blt	r7,r3,1003374 <__addsf3+0x4b8>
 100329c:	01c00804 	movi	r7,32
 10032a0:	38cfc83a 	sub	r7,r7,r3
 10032a4:	21ce983a 	sll	r7,r4,r7
 10032a8:	20c6d83a 	srl	r3,r4,r3
 10032ac:	3808c03a 	cmpne	r4,r7,zero
 10032b0:	1906b03a 	or	r3,r3,r4
 10032b4:	1949883a 	add	r4,r3,r5
 10032b8:	3021883a 	mov	r16,r6
 10032bc:	003f7106 	br	1003084 <__addsf3+0x1c8>
 10032c0:	283f1526 	beq	r5,zero,1002f18 <__addsf3+0x5c>
 10032c4:	2145c83a 	sub	r2,r4,r5
 10032c8:	10c1002c 	andhi	r3,r2,1024
 10032cc:	183f4f26 	beq	r3,zero,100300c <__addsf3+0x150>
 10032d0:	2909c83a 	sub	r4,r5,r4
 10032d4:	3823883a 	mov	r17,r7
 10032d8:	003f0f06 	br	1002f18 <__addsf3+0x5c>
 10032dc:	28001a26 	beq	r5,zero,1003348 <__addsf3+0x48c>
 10032e0:	2008d0fa 	srli	r4,r4,3
 10032e4:	2080102c 	andhi	r2,r4,64
 10032e8:	10000526 	beq	r2,zero,1003300 <__addsf3+0x444>
 10032ec:	280ad0fa 	srli	r5,r5,3
 10032f0:	2880102c 	andhi	r2,r5,64
 10032f4:	1000021e 	bne	r2,zero,1003300 <__addsf3+0x444>
 10032f8:	2809883a 	mov	r4,r5
 10032fc:	3823883a 	mov	r17,r7
 1003300:	200890fa 	slli	r4,r4,3
 1003304:	04003fc4 	movi	r16,255
 1003308:	003f0306 	br	1002f18 <__addsf3+0x5c>
 100330c:	01c03fc4 	movi	r7,255
 1003310:	31ffe01e 	bne	r6,r7,1003294 <__addsf3+0x3d8>
 1003314:	2809883a 	mov	r4,r5
 1003318:	3021883a 	mov	r16,r6
 100331c:	003efe06 	br	1002f18 <__addsf3+0x5c>
 1003320:	20001126 	beq	r4,zero,1003368 <__addsf3+0x4ac>
 1003324:	28000826 	beq	r5,zero,1003348 <__addsf3+0x48c>
 1003328:	2008d0fa 	srli	r4,r4,3
 100332c:	2080102c 	andhi	r2,r4,64
 1003330:	103ff326 	beq	r2,zero,1003300 <__addsf3+0x444>
 1003334:	280ad0fa 	srli	r5,r5,3
 1003338:	2880102c 	andhi	r2,r5,64
 100333c:	103ff01e 	bne	r2,zero,1003300 <__addsf3+0x444>
 1003340:	2809883a 	mov	r4,r5
 1003344:	003fee06 	br	1003300 <__addsf3+0x444>
 1003348:	04003fc4 	movi	r16,255
 100334c:	003ef206 	br	1002f18 <__addsf3+0x5c>
 1003350:	01000044 	movi	r4,1
 1003354:	003f9706 	br	10031b4 <__addsf3+0x2f8>
 1003358:	0005883a 	mov	r2,zero
 100335c:	003f3406 	br	1003030 <__addsf3+0x174>
 1003360:	2809883a 	mov	r4,r5
 1003364:	003eec06 	br	1002f18 <__addsf3+0x5c>
 1003368:	2809883a 	mov	r4,r5
 100336c:	04003fc4 	movi	r16,255
 1003370:	003ee906 	br	1002f18 <__addsf3+0x5c>
 1003374:	00c00044 	movi	r3,1
 1003378:	003fce06 	br	10032b4 <__addsf3+0x3f8>
 100337c:	0005883a 	mov	r2,zero
 1003380:	003f4e06 	br	10030bc <__addsf3+0x200>

01003384 <__mulsf3>:
 1003384:	defff504 	addi	sp,sp,-44
 1003388:	dc000115 	stw	r16,4(sp)
 100338c:	2020d5fa 	srli	r16,r4,23
 1003390:	dd400615 	stw	r21,24(sp)
 1003394:	202ad7fa 	srli	r21,r4,31
 1003398:	dc800315 	stw	r18,12(sp)
 100339c:	04802034 	movhi	r18,128
 10033a0:	df000915 	stw	fp,36(sp)
 10033a4:	dd000515 	stw	r20,20(sp)
 10033a8:	94bfffc4 	addi	r18,r18,-1
 10033ac:	dfc00a15 	stw	ra,40(sp)
 10033b0:	ddc00815 	stw	r23,32(sp)
 10033b4:	dd800715 	stw	r22,28(sp)
 10033b8:	dcc00415 	stw	r19,16(sp)
 10033bc:	dc400215 	stw	r17,8(sp)
 10033c0:	84003fcc 	andi	r16,r16,255
 10033c4:	9124703a 	and	r18,r18,r4
 10033c8:	a829883a 	mov	r20,r21
 10033cc:	af003fcc 	andi	fp,r21,255
 10033d0:	80005426 	beq	r16,zero,1003524 <__mulsf3+0x1a0>
 10033d4:	00803fc4 	movi	r2,255
 10033d8:	80802f26 	beq	r16,r2,1003498 <__mulsf3+0x114>
 10033dc:	91002034 	orhi	r4,r18,128
 10033e0:	202490fa 	slli	r18,r4,3
 10033e4:	843fe044 	addi	r16,r16,-127
 10033e8:	0023883a 	mov	r17,zero
 10033ec:	002f883a 	mov	r23,zero
 10033f0:	2804d5fa 	srli	r2,r5,23
 10033f4:	282cd7fa 	srli	r22,r5,31
 10033f8:	01002034 	movhi	r4,128
 10033fc:	213fffc4 	addi	r4,r4,-1
 1003400:	10803fcc 	andi	r2,r2,255
 1003404:	2166703a 	and	r19,r4,r5
 1003408:	b1803fcc 	andi	r6,r22,255
 100340c:	10004c26 	beq	r2,zero,1003540 <__mulsf3+0x1bc>
 1003410:	00c03fc4 	movi	r3,255
 1003414:	10c04726 	beq	r2,r3,1003534 <__mulsf3+0x1b0>
 1003418:	99002034 	orhi	r4,r19,128
 100341c:	202690fa 	slli	r19,r4,3
 1003420:	10bfe044 	addi	r2,r2,-127
 1003424:	0007883a 	mov	r3,zero
 1003428:	80a1883a 	add	r16,r16,r2
 100342c:	010003c4 	movi	r4,15
 1003430:	1c44b03a 	or	r2,r3,r17
 1003434:	b56af03a 	xor	r21,r22,r21
 1003438:	81c00044 	addi	r7,r16,1
 100343c:	20806b36 	bltu	r4,r2,10035ec <__mulsf3+0x268>
 1003440:	100490ba 	slli	r2,r2,2
 1003444:	01004034 	movhi	r4,256
 1003448:	210d1604 	addi	r4,r4,13400
 100344c:	1105883a 	add	r2,r2,r4
 1003450:	10800017 	ldw	r2,0(r2)
 1003454:	1000683a 	jmp	r2
 1003458:	010035ec 	andhi	r4,zero,215
 100345c:	010034ac 	andhi	r4,zero,210
 1003460:	010034ac 	andhi	r4,zero,210
 1003464:	010034a8 	cmpgeui	r4,zero,210
 1003468:	010035d0 	cmplti	r4,zero,215
 100346c:	010035d0 	cmplti	r4,zero,215
 1003470:	010035bc 	xorhi	r4,zero,214
 1003474:	010034a8 	cmpgeui	r4,zero,210
 1003478:	010035d0 	cmplti	r4,zero,215
 100347c:	010035bc 	xorhi	r4,zero,214
 1003480:	010035d0 	cmplti	r4,zero,215
 1003484:	010034a8 	cmpgeui	r4,zero,210
 1003488:	010035dc 	xori	r4,zero,215
 100348c:	010035dc 	xori	r4,zero,215
 1003490:	010035dc 	xori	r4,zero,215
 1003494:	010036ec 	andhi	r4,zero,219
 1003498:	90003b1e 	bne	r18,zero,1003588 <__mulsf3+0x204>
 100349c:	04400204 	movi	r17,8
 10034a0:	05c00084 	movi	r23,2
 10034a4:	003fd206 	br	10033f0 <__mulsf3+0x6c>
 10034a8:	302b883a 	mov	r21,r6
 10034ac:	00800084 	movi	r2,2
 10034b0:	18802626 	beq	r3,r2,100354c <__mulsf3+0x1c8>
 10034b4:	008000c4 	movi	r2,3
 10034b8:	1880b826 	beq	r3,r2,100379c <__mulsf3+0x418>
 10034bc:	00800044 	movi	r2,1
 10034c0:	1880af1e 	bne	r3,r2,1003780 <__mulsf3+0x3fc>
 10034c4:	a829883a 	mov	r20,r21
 10034c8:	0007883a 	mov	r3,zero
 10034cc:	0009883a 	mov	r4,zero
 10034d0:	18803fcc 	andi	r2,r3,255
 10034d4:	100695fa 	slli	r3,r2,23
 10034d8:	a0803fcc 	andi	r2,r20,255
 10034dc:	100a97fa 	slli	r5,r2,31
 10034e0:	00802034 	movhi	r2,128
 10034e4:	10bfffc4 	addi	r2,r2,-1
 10034e8:	2084703a 	and	r2,r4,r2
 10034ec:	10c4b03a 	or	r2,r2,r3
 10034f0:	1144b03a 	or	r2,r2,r5
 10034f4:	dfc00a17 	ldw	ra,40(sp)
 10034f8:	df000917 	ldw	fp,36(sp)
 10034fc:	ddc00817 	ldw	r23,32(sp)
 1003500:	dd800717 	ldw	r22,28(sp)
 1003504:	dd400617 	ldw	r21,24(sp)
 1003508:	dd000517 	ldw	r20,20(sp)
 100350c:	dcc00417 	ldw	r19,16(sp)
 1003510:	dc800317 	ldw	r18,12(sp)
 1003514:	dc400217 	ldw	r17,8(sp)
 1003518:	dc000117 	ldw	r16,4(sp)
 100351c:	dec00b04 	addi	sp,sp,44
 1003520:	f800283a 	ret
 1003524:	90000d1e 	bne	r18,zero,100355c <__mulsf3+0x1d8>
 1003528:	04400104 	movi	r17,4
 100352c:	05c00044 	movi	r23,1
 1003530:	003faf06 	br	10033f0 <__mulsf3+0x6c>
 1003534:	9806c03a 	cmpne	r3,r19,zero
 1003538:	18c00084 	addi	r3,r3,2
 100353c:	003fba06 	br	1003428 <__mulsf3+0xa4>
 1003540:	9800141e 	bne	r19,zero,1003594 <__mulsf3+0x210>
 1003544:	00c00044 	movi	r3,1
 1003548:	003fb706 	br	1003428 <__mulsf3+0xa4>
 100354c:	a829883a 	mov	r20,r21
 1003550:	00ffffc4 	movi	r3,-1
 1003554:	0009883a 	mov	r4,zero
 1003558:	003fdd06 	br	10034d0 <__mulsf3+0x14c>
 100355c:	9009883a 	mov	r4,r18
 1003560:	d9400015 	stw	r5,0(sp)
 1003564:	10056a00 	call	10056a0 <__clzsi2>
 1003568:	10fffec4 	addi	r3,r2,-5
 100356c:	10801d84 	addi	r2,r2,118
 1003570:	90e4983a 	sll	r18,r18,r3
 1003574:	00a1c83a 	sub	r16,zero,r2
 1003578:	0023883a 	mov	r17,zero
 100357c:	002f883a 	mov	r23,zero
 1003580:	d9400017 	ldw	r5,0(sp)
 1003584:	003f9a06 	br	10033f0 <__mulsf3+0x6c>
 1003588:	04400304 	movi	r17,12
 100358c:	05c000c4 	movi	r23,3
 1003590:	003f9706 	br	10033f0 <__mulsf3+0x6c>
 1003594:	9809883a 	mov	r4,r19
 1003598:	d9800015 	stw	r6,0(sp)
 100359c:	10056a00 	call	10056a0 <__clzsi2>
 10035a0:	10fffec4 	addi	r3,r2,-5
 10035a4:	10801d84 	addi	r2,r2,118
 10035a8:	98e6983a 	sll	r19,r19,r3
 10035ac:	0085c83a 	sub	r2,zero,r2
 10035b0:	0007883a 	mov	r3,zero
 10035b4:	d9800017 	ldw	r6,0(sp)
 10035b8:	003f9b06 	br	1003428 <__mulsf3+0xa4>
 10035bc:	01002034 	movhi	r4,128
 10035c0:	0029883a 	mov	r20,zero
 10035c4:	213fffc4 	addi	r4,r4,-1
 10035c8:	00ffffc4 	movi	r3,-1
 10035cc:	003fc006 	br	10034d0 <__mulsf3+0x14c>
 10035d0:	9027883a 	mov	r19,r18
 10035d4:	b807883a 	mov	r3,r23
 10035d8:	003fb406 	br	10034ac <__mulsf3+0x128>
 10035dc:	9027883a 	mov	r19,r18
 10035e0:	e02b883a 	mov	r21,fp
 10035e4:	b807883a 	mov	r3,r23
 10035e8:	003fb006 	br	10034ac <__mulsf3+0x128>
 10035ec:	9028d43a 	srli	r20,r18,16
 10035f0:	982cd43a 	srli	r22,r19,16
 10035f4:	94bfffcc 	andi	r18,r18,65535
 10035f8:	9cffffcc 	andi	r19,r19,65535
 10035fc:	980b883a 	mov	r5,r19
 1003600:	9009883a 	mov	r4,r18
 1003604:	d9c00015 	stw	r7,0(sp)
 1003608:	1002e940 	call	1002e94 <__mulsi3>
 100360c:	a00b883a 	mov	r5,r20
 1003610:	9809883a 	mov	r4,r19
 1003614:	1023883a 	mov	r17,r2
 1003618:	1002e940 	call	1002e94 <__mulsi3>
 100361c:	a009883a 	mov	r4,r20
 1003620:	b00b883a 	mov	r5,r22
 1003624:	1027883a 	mov	r19,r2
 1003628:	1002e940 	call	1002e94 <__mulsi3>
 100362c:	b00b883a 	mov	r5,r22
 1003630:	9009883a 	mov	r4,r18
 1003634:	1029883a 	mov	r20,r2
 1003638:	1002e940 	call	1002e94 <__mulsi3>
 100363c:	8806d43a 	srli	r3,r17,16
 1003640:	14c5883a 	add	r2,r2,r19
 1003644:	d9c00017 	ldw	r7,0(sp)
 1003648:	1885883a 	add	r2,r3,r2
 100364c:	14c0022e 	bgeu	r2,r19,1003658 <__mulsf3+0x2d4>
 1003650:	00c00074 	movhi	r3,1
 1003654:	a0e9883a 	add	r20,r20,r3
 1003658:	1026943a 	slli	r19,r2,16
 100365c:	8c7fffcc 	andi	r17,r17,65535
 1003660:	1004d43a 	srli	r2,r2,16
 1003664:	9c63883a 	add	r17,r19,r17
 1003668:	882691ba 	slli	r19,r17,6
 100366c:	1505883a 	add	r2,r2,r20
 1003670:	8822d6ba 	srli	r17,r17,26
 1003674:	100891ba 	slli	r4,r2,6
 1003678:	9826c03a 	cmpne	r19,r19,zero
 100367c:	9c62b03a 	or	r17,r19,r17
 1003680:	8926b03a 	or	r19,r17,r4
 1003684:	9882002c 	andhi	r2,r19,2048
 1003688:	10000426 	beq	r2,zero,100369c <__mulsf3+0x318>
 100368c:	9804d07a 	srli	r2,r19,1
 1003690:	9900004c 	andi	r4,r19,1
 1003694:	3821883a 	mov	r16,r7
 1003698:	1126b03a 	or	r19,r2,r4
 100369c:	80c01fc4 	addi	r3,r16,127
 10036a0:	00c0210e 	bge	zero,r3,1003728 <__mulsf3+0x3a4>
 10036a4:	988001cc 	andi	r2,r19,7
 10036a8:	10000426 	beq	r2,zero,10036bc <__mulsf3+0x338>
 10036ac:	988003cc 	andi	r2,r19,15
 10036b0:	01000104 	movi	r4,4
 10036b4:	11000126 	beq	r2,r4,10036bc <__mulsf3+0x338>
 10036b8:	9927883a 	add	r19,r19,r4
 10036bc:	9882002c 	andhi	r2,r19,2048
 10036c0:	10000426 	beq	r2,zero,10036d4 <__mulsf3+0x350>
 10036c4:	00be0034 	movhi	r2,63488
 10036c8:	10bfffc4 	addi	r2,r2,-1
 10036cc:	80c02004 	addi	r3,r16,128
 10036d0:	98a6703a 	and	r19,r19,r2
 10036d4:	00803f84 	movi	r2,254
 10036d8:	10ff9c16 	blt	r2,r3,100354c <__mulsf3+0x1c8>
 10036dc:	980891ba 	slli	r4,r19,6
 10036e0:	a829883a 	mov	r20,r21
 10036e4:	2008d27a 	srli	r4,r4,9
 10036e8:	003f7906 	br	10034d0 <__mulsf3+0x14c>
 10036ec:	9080102c 	andhi	r2,r18,64
 10036f0:	10000826 	beq	r2,zero,1003714 <__mulsf3+0x390>
 10036f4:	9880102c 	andhi	r2,r19,64
 10036f8:	1000061e 	bne	r2,zero,1003714 <__mulsf3+0x390>
 10036fc:	00802034 	movhi	r2,128
 1003700:	99001034 	orhi	r4,r19,64
 1003704:	10bfffc4 	addi	r2,r2,-1
 1003708:	b029883a 	mov	r20,r22
 100370c:	2088703a 	and	r4,r4,r2
 1003710:	003fad06 	br	10035c8 <__mulsf3+0x244>
 1003714:	00802034 	movhi	r2,128
 1003718:	91001034 	orhi	r4,r18,64
 100371c:	10bfffc4 	addi	r2,r2,-1
 1003720:	2088703a 	and	r4,r4,r2
 1003724:	003fa806 	br	10035c8 <__mulsf3+0x244>
 1003728:	00800044 	movi	r2,1
 100372c:	10c7c83a 	sub	r3,r2,r3
 1003730:	008006c4 	movi	r2,27
 1003734:	10ff6316 	blt	r2,r3,10034c4 <__mulsf3+0x140>
 1003738:	00800804 	movi	r2,32
 100373c:	10c5c83a 	sub	r2,r2,r3
 1003740:	9884983a 	sll	r2,r19,r2
 1003744:	98c6d83a 	srl	r3,r19,r3
 1003748:	1004c03a 	cmpne	r2,r2,zero
 100374c:	1884b03a 	or	r2,r3,r2
 1003750:	10c001cc 	andi	r3,r2,7
 1003754:	18000426 	beq	r3,zero,1003768 <__mulsf3+0x3e4>
 1003758:	10c003cc 	andi	r3,r2,15
 100375c:	01000104 	movi	r4,4
 1003760:	19000126 	beq	r3,r4,1003768 <__mulsf3+0x3e4>
 1003764:	1105883a 	add	r2,r2,r4
 1003768:	10c1002c 	andhi	r3,r2,1024
 100376c:	18000626 	beq	r3,zero,1003788 <__mulsf3+0x404>
 1003770:	a829883a 	mov	r20,r21
 1003774:	00c00044 	movi	r3,1
 1003778:	0009883a 	mov	r4,zero
 100377c:	003f5406 	br	10034d0 <__mulsf3+0x14c>
 1003780:	3821883a 	mov	r16,r7
 1003784:	003fc506 	br	100369c <__mulsf3+0x318>
 1003788:	100491ba 	slli	r2,r2,6
 100378c:	a829883a 	mov	r20,r21
 1003790:	0007883a 	mov	r3,zero
 1003794:	1008d27a 	srli	r4,r2,9
 1003798:	003f4d06 	br	10034d0 <__mulsf3+0x14c>
 100379c:	00802034 	movhi	r2,128
 10037a0:	99001034 	orhi	r4,r19,64
 10037a4:	10bfffc4 	addi	r2,r2,-1
 10037a8:	a829883a 	mov	r20,r21
 10037ac:	2088703a 	and	r4,r4,r2
 10037b0:	003f8506 	br	10035c8 <__mulsf3+0x244>

010037b4 <__fixsfsi>:
 10037b4:	200ad5fa 	srli	r5,r4,23
 10037b8:	00c02034 	movhi	r3,128
 10037bc:	18ffffc4 	addi	r3,r3,-1
 10037c0:	29403fcc 	andi	r5,r5,255
 10037c4:	00801f84 	movi	r2,126
 10037c8:	1906703a 	and	r3,r3,r4
 10037cc:	2008d7fa 	srli	r4,r4,31
 10037d0:	11400e0e 	bge	r2,r5,100380c <__fixsfsi+0x58>
 10037d4:	00802744 	movi	r2,157
 10037d8:	11400816 	blt	r2,r5,10037fc <__fixsfsi+0x48>
 10037dc:	00802544 	movi	r2,149
 10037e0:	18c02034 	orhi	r3,r3,128
 10037e4:	11400b0e 	bge	r2,r5,1003814 <__fixsfsi+0x60>
 10037e8:	28bfda84 	addi	r2,r5,-150
 10037ec:	1884983a 	sll	r2,r3,r2
 10037f0:	20000726 	beq	r4,zero,1003810 <__fixsfsi+0x5c>
 10037f4:	0085c83a 	sub	r2,zero,r2
 10037f8:	f800283a 	ret
 10037fc:	00a00034 	movhi	r2,32768
 1003800:	10bfffc4 	addi	r2,r2,-1
 1003804:	2085883a 	add	r2,r4,r2
 1003808:	f800283a 	ret
 100380c:	0005883a 	mov	r2,zero
 1003810:	f800283a 	ret
 1003814:	00802584 	movi	r2,150
 1003818:	1145c83a 	sub	r2,r2,r5
 100381c:	1884d83a 	srl	r2,r3,r2
 1003820:	003ff306 	br	10037f0 <__fixsfsi+0x3c>

01003824 <__adddf3>:
 1003824:	02c00434 	movhi	r11,16
 1003828:	5affffc4 	addi	r11,r11,-1
 100382c:	2806d7fa 	srli	r3,r5,31
 1003830:	2ad4703a 	and	r10,r5,r11
 1003834:	3ad2703a 	and	r9,r7,r11
 1003838:	3804d53a 	srli	r2,r7,20
 100383c:	3018d77a 	srli	r12,r6,29
 1003840:	280ad53a 	srli	r5,r5,20
 1003844:	501490fa 	slli	r10,r10,3
 1003848:	2010d77a 	srli	r8,r4,29
 100384c:	481290fa 	slli	r9,r9,3
 1003850:	380ed7fa 	srli	r7,r7,31
 1003854:	defffb04 	addi	sp,sp,-20
 1003858:	dc800215 	stw	r18,8(sp)
 100385c:	dc400115 	stw	r17,4(sp)
 1003860:	dc000015 	stw	r16,0(sp)
 1003864:	dfc00415 	stw	ra,16(sp)
 1003868:	dcc00315 	stw	r19,12(sp)
 100386c:	1c803fcc 	andi	r18,r3,255
 1003870:	2c01ffcc 	andi	r16,r5,2047
 1003874:	5210b03a 	or	r8,r10,r8
 1003878:	202290fa 	slli	r17,r4,3
 100387c:	1081ffcc 	andi	r2,r2,2047
 1003880:	4b12b03a 	or	r9,r9,r12
 1003884:	300c90fa 	slli	r6,r6,3
 1003888:	91c07526 	beq	r18,r7,1003a60 <__adddf3+0x23c>
 100388c:	8087c83a 	sub	r3,r16,r2
 1003890:	00c0ab0e 	bge	zero,r3,1003b40 <__adddf3+0x31c>
 1003894:	10002a1e 	bne	r2,zero,1003940 <__adddf3+0x11c>
 1003898:	4984b03a 	or	r2,r9,r6
 100389c:	1000961e 	bne	r2,zero,1003af8 <__adddf3+0x2d4>
 10038a0:	888001cc 	andi	r2,r17,7
 10038a4:	10000726 	beq	r2,zero,10038c4 <__adddf3+0xa0>
 10038a8:	888003cc 	andi	r2,r17,15
 10038ac:	00c00104 	movi	r3,4
 10038b0:	10c00426 	beq	r2,r3,10038c4 <__adddf3+0xa0>
 10038b4:	88c7883a 	add	r3,r17,r3
 10038b8:	1c63803a 	cmpltu	r17,r3,r17
 10038bc:	4451883a 	add	r8,r8,r17
 10038c0:	1823883a 	mov	r17,r3
 10038c4:	4080202c 	andhi	r2,r8,128
 10038c8:	10005926 	beq	r2,zero,1003a30 <__adddf3+0x20c>
 10038cc:	84000044 	addi	r16,r16,1
 10038d0:	0081ffc4 	movi	r2,2047
 10038d4:	8080ba26 	beq	r16,r2,1003bc0 <__adddf3+0x39c>
 10038d8:	00bfe034 	movhi	r2,65408
 10038dc:	10bfffc4 	addi	r2,r2,-1
 10038e0:	4090703a 	and	r8,r8,r2
 10038e4:	4004977a 	slli	r2,r8,29
 10038e8:	4010927a 	slli	r8,r8,9
 10038ec:	8822d0fa 	srli	r17,r17,3
 10038f0:	8401ffcc 	andi	r16,r16,2047
 10038f4:	4010d33a 	srli	r8,r8,12
 10038f8:	9007883a 	mov	r3,r18
 10038fc:	1444b03a 	or	r2,r2,r17
 1003900:	8401ffcc 	andi	r16,r16,2047
 1003904:	8020953a 	slli	r16,r16,20
 1003908:	18c03fcc 	andi	r3,r3,255
 100390c:	01000434 	movhi	r4,16
 1003910:	213fffc4 	addi	r4,r4,-1
 1003914:	180697fa 	slli	r3,r3,31
 1003918:	4110703a 	and	r8,r8,r4
 100391c:	4410b03a 	or	r8,r8,r16
 1003920:	40c6b03a 	or	r3,r8,r3
 1003924:	dfc00417 	ldw	ra,16(sp)
 1003928:	dcc00317 	ldw	r19,12(sp)
 100392c:	dc800217 	ldw	r18,8(sp)
 1003930:	dc400117 	ldw	r17,4(sp)
 1003934:	dc000017 	ldw	r16,0(sp)
 1003938:	dec00504 	addi	sp,sp,20
 100393c:	f800283a 	ret
 1003940:	0081ffc4 	movi	r2,2047
 1003944:	80bfd626 	beq	r16,r2,10038a0 <__adddf3+0x7c>
 1003948:	4a402034 	orhi	r9,r9,128
 100394c:	00800e04 	movi	r2,56
 1003950:	10c09f16 	blt	r2,r3,1003bd0 <__adddf3+0x3ac>
 1003954:	008007c4 	movi	r2,31
 1003958:	10c0c216 	blt	r2,r3,1003c64 <__adddf3+0x440>
 100395c:	00800804 	movi	r2,32
 1003960:	10c5c83a 	sub	r2,r2,r3
 1003964:	488a983a 	sll	r5,r9,r2
 1003968:	30c8d83a 	srl	r4,r6,r3
 100396c:	3084983a 	sll	r2,r6,r2
 1003970:	48c6d83a 	srl	r3,r9,r3
 1003974:	290cb03a 	or	r6,r5,r4
 1003978:	1004c03a 	cmpne	r2,r2,zero
 100397c:	308cb03a 	or	r6,r6,r2
 1003980:	898dc83a 	sub	r6,r17,r6
 1003984:	89a3803a 	cmpltu	r17,r17,r6
 1003988:	40d1c83a 	sub	r8,r8,r3
 100398c:	4451c83a 	sub	r8,r8,r17
 1003990:	3023883a 	mov	r17,r6
 1003994:	4080202c 	andhi	r2,r8,128
 1003998:	10002326 	beq	r2,zero,1003a28 <__adddf3+0x204>
 100399c:	04c02034 	movhi	r19,128
 10039a0:	9cffffc4 	addi	r19,r19,-1
 10039a4:	44e6703a 	and	r19,r8,r19
 10039a8:	98007626 	beq	r19,zero,1003b84 <__adddf3+0x360>
 10039ac:	9809883a 	mov	r4,r19
 10039b0:	10056a00 	call	10056a0 <__clzsi2>
 10039b4:	10fffe04 	addi	r3,r2,-8
 10039b8:	010007c4 	movi	r4,31
 10039bc:	20c07716 	blt	r4,r3,1003b9c <__adddf3+0x378>
 10039c0:	00800804 	movi	r2,32
 10039c4:	10c5c83a 	sub	r2,r2,r3
 10039c8:	8884d83a 	srl	r2,r17,r2
 10039cc:	98d0983a 	sll	r8,r19,r3
 10039d0:	88e2983a 	sll	r17,r17,r3
 10039d4:	1204b03a 	or	r2,r2,r8
 10039d8:	1c007416 	blt	r3,r16,1003bac <__adddf3+0x388>
 10039dc:	1c21c83a 	sub	r16,r3,r16
 10039e0:	82000044 	addi	r8,r16,1
 10039e4:	00c007c4 	movi	r3,31
 10039e8:	1a009116 	blt	r3,r8,1003c30 <__adddf3+0x40c>
 10039ec:	00c00804 	movi	r3,32
 10039f0:	1a07c83a 	sub	r3,r3,r8
 10039f4:	8a08d83a 	srl	r4,r17,r8
 10039f8:	88e2983a 	sll	r17,r17,r3
 10039fc:	10c6983a 	sll	r3,r2,r3
 1003a00:	1210d83a 	srl	r8,r2,r8
 1003a04:	8804c03a 	cmpne	r2,r17,zero
 1003a08:	1906b03a 	or	r3,r3,r4
 1003a0c:	18a2b03a 	or	r17,r3,r2
 1003a10:	0021883a 	mov	r16,zero
 1003a14:	003fa206 	br	10038a0 <__adddf3+0x7c>
 1003a18:	1890b03a 	or	r8,r3,r2
 1003a1c:	40017d26 	beq	r8,zero,1004014 <__adddf3+0x7f0>
 1003a20:	1011883a 	mov	r8,r2
 1003a24:	1823883a 	mov	r17,r3
 1003a28:	888001cc 	andi	r2,r17,7
 1003a2c:	103f9e1e 	bne	r2,zero,10038a8 <__adddf3+0x84>
 1003a30:	4004977a 	slli	r2,r8,29
 1003a34:	8822d0fa 	srli	r17,r17,3
 1003a38:	4010d0fa 	srli	r8,r8,3
 1003a3c:	9007883a 	mov	r3,r18
 1003a40:	1444b03a 	or	r2,r2,r17
 1003a44:	0101ffc4 	movi	r4,2047
 1003a48:	81002426 	beq	r16,r4,1003adc <__adddf3+0x2b8>
 1003a4c:	8120703a 	and	r16,r16,r4
 1003a50:	01000434 	movhi	r4,16
 1003a54:	213fffc4 	addi	r4,r4,-1
 1003a58:	4110703a 	and	r8,r8,r4
 1003a5c:	003fa806 	br	1003900 <__adddf3+0xdc>
 1003a60:	8089c83a 	sub	r4,r16,r2
 1003a64:	01005e0e 	bge	zero,r4,1003be0 <__adddf3+0x3bc>
 1003a68:	10002b26 	beq	r2,zero,1003b18 <__adddf3+0x2f4>
 1003a6c:	0081ffc4 	movi	r2,2047
 1003a70:	80bf8b26 	beq	r16,r2,10038a0 <__adddf3+0x7c>
 1003a74:	4a402034 	orhi	r9,r9,128
 1003a78:	00800e04 	movi	r2,56
 1003a7c:	1100a40e 	bge	r2,r4,1003d10 <__adddf3+0x4ec>
 1003a80:	498cb03a 	or	r6,r9,r6
 1003a84:	300ac03a 	cmpne	r5,r6,zero
 1003a88:	0013883a 	mov	r9,zero
 1003a8c:	2c4b883a 	add	r5,r5,r17
 1003a90:	2c63803a 	cmpltu	r17,r5,r17
 1003a94:	4a11883a 	add	r8,r9,r8
 1003a98:	8a11883a 	add	r8,r17,r8
 1003a9c:	2823883a 	mov	r17,r5
 1003aa0:	4080202c 	andhi	r2,r8,128
 1003aa4:	103fe026 	beq	r2,zero,1003a28 <__adddf3+0x204>
 1003aa8:	84000044 	addi	r16,r16,1
 1003aac:	0081ffc4 	movi	r2,2047
 1003ab0:	8080d226 	beq	r16,r2,1003dfc <__adddf3+0x5d8>
 1003ab4:	00bfe034 	movhi	r2,65408
 1003ab8:	10bfffc4 	addi	r2,r2,-1
 1003abc:	4090703a 	and	r8,r8,r2
 1003ac0:	880ad07a 	srli	r5,r17,1
 1003ac4:	400897fa 	slli	r4,r8,31
 1003ac8:	88c0004c 	andi	r3,r17,1
 1003acc:	28e2b03a 	or	r17,r5,r3
 1003ad0:	4010d07a 	srli	r8,r8,1
 1003ad4:	2462b03a 	or	r17,r4,r17
 1003ad8:	003f7106 	br	10038a0 <__adddf3+0x7c>
 1003adc:	4088b03a 	or	r4,r8,r2
 1003ae0:	20014526 	beq	r4,zero,1003ff8 <__adddf3+0x7d4>
 1003ae4:	01000434 	movhi	r4,16
 1003ae8:	42000234 	orhi	r8,r8,8
 1003aec:	213fffc4 	addi	r4,r4,-1
 1003af0:	4110703a 	and	r8,r8,r4
 1003af4:	003f8206 	br	1003900 <__adddf3+0xdc>
 1003af8:	18ffffc4 	addi	r3,r3,-1
 1003afc:	1800491e 	bne	r3,zero,1003c24 <__adddf3+0x400>
 1003b00:	898bc83a 	sub	r5,r17,r6
 1003b04:	8963803a 	cmpltu	r17,r17,r5
 1003b08:	4251c83a 	sub	r8,r8,r9
 1003b0c:	4451c83a 	sub	r8,r8,r17
 1003b10:	2823883a 	mov	r17,r5
 1003b14:	003f9f06 	br	1003994 <__adddf3+0x170>
 1003b18:	4984b03a 	or	r2,r9,r6
 1003b1c:	103f6026 	beq	r2,zero,10038a0 <__adddf3+0x7c>
 1003b20:	213fffc4 	addi	r4,r4,-1
 1003b24:	2000931e 	bne	r4,zero,1003d74 <__adddf3+0x550>
 1003b28:	898d883a 	add	r6,r17,r6
 1003b2c:	3463803a 	cmpltu	r17,r6,r17
 1003b30:	4251883a 	add	r8,r8,r9
 1003b34:	8a11883a 	add	r8,r17,r8
 1003b38:	3023883a 	mov	r17,r6
 1003b3c:	003fd806 	br	1003aa0 <__adddf3+0x27c>
 1003b40:	1800541e 	bne	r3,zero,1003c94 <__adddf3+0x470>
 1003b44:	80800044 	addi	r2,r16,1
 1003b48:	1081ffcc 	andi	r2,r2,2047
 1003b4c:	00c00044 	movi	r3,1
 1003b50:	1880a00e 	bge	r3,r2,1003dd4 <__adddf3+0x5b0>
 1003b54:	8989c83a 	sub	r4,r17,r6
 1003b58:	8905803a 	cmpltu	r2,r17,r4
 1003b5c:	4267c83a 	sub	r19,r8,r9
 1003b60:	98a7c83a 	sub	r19,r19,r2
 1003b64:	9880202c 	andhi	r2,r19,128
 1003b68:	10006326 	beq	r2,zero,1003cf8 <__adddf3+0x4d4>
 1003b6c:	3463c83a 	sub	r17,r6,r17
 1003b70:	4a07c83a 	sub	r3,r9,r8
 1003b74:	344d803a 	cmpltu	r6,r6,r17
 1003b78:	19a7c83a 	sub	r19,r3,r6
 1003b7c:	3825883a 	mov	r18,r7
 1003b80:	983f8a1e 	bne	r19,zero,10039ac <__adddf3+0x188>
 1003b84:	8809883a 	mov	r4,r17
 1003b88:	10056a00 	call	10056a0 <__clzsi2>
 1003b8c:	10800804 	addi	r2,r2,32
 1003b90:	10fffe04 	addi	r3,r2,-8
 1003b94:	010007c4 	movi	r4,31
 1003b98:	20ff890e 	bge	r4,r3,10039c0 <__adddf3+0x19c>
 1003b9c:	10bff604 	addi	r2,r2,-40
 1003ba0:	8884983a 	sll	r2,r17,r2
 1003ba4:	0023883a 	mov	r17,zero
 1003ba8:	1c3f8c0e 	bge	r3,r16,10039dc <__adddf3+0x1b8>
 1003bac:	023fe034 	movhi	r8,65408
 1003bb0:	423fffc4 	addi	r8,r8,-1
 1003bb4:	80e1c83a 	sub	r16,r16,r3
 1003bb8:	1210703a 	and	r8,r2,r8
 1003bbc:	003f3806 	br	10038a0 <__adddf3+0x7c>
 1003bc0:	9007883a 	mov	r3,r18
 1003bc4:	0011883a 	mov	r8,zero
 1003bc8:	0005883a 	mov	r2,zero
 1003bcc:	003f4c06 	br	1003900 <__adddf3+0xdc>
 1003bd0:	498cb03a 	or	r6,r9,r6
 1003bd4:	300cc03a 	cmpne	r6,r6,zero
 1003bd8:	0007883a 	mov	r3,zero
 1003bdc:	003f6806 	br	1003980 <__adddf3+0x15c>
 1003be0:	20009c1e 	bne	r4,zero,1003e54 <__adddf3+0x630>
 1003be4:	80800044 	addi	r2,r16,1
 1003be8:	1141ffcc 	andi	r5,r2,2047
 1003bec:	01000044 	movi	r4,1
 1003bf0:	2140670e 	bge	r4,r5,1003d90 <__adddf3+0x56c>
 1003bf4:	0101ffc4 	movi	r4,2047
 1003bf8:	11007f26 	beq	r2,r4,1003df8 <__adddf3+0x5d4>
 1003bfc:	898d883a 	add	r6,r17,r6
 1003c00:	4247883a 	add	r3,r8,r9
 1003c04:	3451803a 	cmpltu	r8,r6,r17
 1003c08:	40d1883a 	add	r8,r8,r3
 1003c0c:	402297fa 	slli	r17,r8,31
 1003c10:	300cd07a 	srli	r6,r6,1
 1003c14:	4010d07a 	srli	r8,r8,1
 1003c18:	1021883a 	mov	r16,r2
 1003c1c:	89a2b03a 	or	r17,r17,r6
 1003c20:	003f1f06 	br	10038a0 <__adddf3+0x7c>
 1003c24:	0081ffc4 	movi	r2,2047
 1003c28:	80bf481e 	bne	r16,r2,100394c <__adddf3+0x128>
 1003c2c:	003f1c06 	br	10038a0 <__adddf3+0x7c>
 1003c30:	843ff844 	addi	r16,r16,-31
 1003c34:	01000804 	movi	r4,32
 1003c38:	1406d83a 	srl	r3,r2,r16
 1003c3c:	41005026 	beq	r8,r4,1003d80 <__adddf3+0x55c>
 1003c40:	01001004 	movi	r4,64
 1003c44:	2211c83a 	sub	r8,r4,r8
 1003c48:	1204983a 	sll	r2,r2,r8
 1003c4c:	88a2b03a 	or	r17,r17,r2
 1003c50:	8822c03a 	cmpne	r17,r17,zero
 1003c54:	1c62b03a 	or	r17,r3,r17
 1003c58:	0011883a 	mov	r8,zero
 1003c5c:	0021883a 	mov	r16,zero
 1003c60:	003f7106 	br	1003a28 <__adddf3+0x204>
 1003c64:	193ff804 	addi	r4,r3,-32
 1003c68:	00800804 	movi	r2,32
 1003c6c:	4908d83a 	srl	r4,r9,r4
 1003c70:	18804526 	beq	r3,r2,1003d88 <__adddf3+0x564>
 1003c74:	00801004 	movi	r2,64
 1003c78:	10c5c83a 	sub	r2,r2,r3
 1003c7c:	4886983a 	sll	r3,r9,r2
 1003c80:	198cb03a 	or	r6,r3,r6
 1003c84:	300cc03a 	cmpne	r6,r6,zero
 1003c88:	218cb03a 	or	r6,r4,r6
 1003c8c:	0007883a 	mov	r3,zero
 1003c90:	003f3b06 	br	1003980 <__adddf3+0x15c>
 1003c94:	80002a26 	beq	r16,zero,1003d40 <__adddf3+0x51c>
 1003c98:	0101ffc4 	movi	r4,2047
 1003c9c:	11006826 	beq	r2,r4,1003e40 <__adddf3+0x61c>
 1003ca0:	00c7c83a 	sub	r3,zero,r3
 1003ca4:	42002034 	orhi	r8,r8,128
 1003ca8:	01000e04 	movi	r4,56
 1003cac:	20c07c16 	blt	r4,r3,1003ea0 <__adddf3+0x67c>
 1003cb0:	010007c4 	movi	r4,31
 1003cb4:	20c0da16 	blt	r4,r3,1004020 <__adddf3+0x7fc>
 1003cb8:	01000804 	movi	r4,32
 1003cbc:	20c9c83a 	sub	r4,r4,r3
 1003cc0:	4114983a 	sll	r10,r8,r4
 1003cc4:	88cad83a 	srl	r5,r17,r3
 1003cc8:	8908983a 	sll	r4,r17,r4
 1003ccc:	40c6d83a 	srl	r3,r8,r3
 1003cd0:	5162b03a 	or	r17,r10,r5
 1003cd4:	2008c03a 	cmpne	r4,r4,zero
 1003cd8:	8922b03a 	or	r17,r17,r4
 1003cdc:	3463c83a 	sub	r17,r6,r17
 1003ce0:	48c7c83a 	sub	r3,r9,r3
 1003ce4:	344d803a 	cmpltu	r6,r6,r17
 1003ce8:	1991c83a 	sub	r8,r3,r6
 1003cec:	1021883a 	mov	r16,r2
 1003cf0:	3825883a 	mov	r18,r7
 1003cf4:	003f2706 	br	1003994 <__adddf3+0x170>
 1003cf8:	24d0b03a 	or	r8,r4,r19
 1003cfc:	40001b1e 	bne	r8,zero,1003d6c <__adddf3+0x548>
 1003d00:	0005883a 	mov	r2,zero
 1003d04:	0007883a 	mov	r3,zero
 1003d08:	0021883a 	mov	r16,zero
 1003d0c:	003f4d06 	br	1003a44 <__adddf3+0x220>
 1003d10:	008007c4 	movi	r2,31
 1003d14:	11003c16 	blt	r2,r4,1003e08 <__adddf3+0x5e4>
 1003d18:	00800804 	movi	r2,32
 1003d1c:	1105c83a 	sub	r2,r2,r4
 1003d20:	488e983a 	sll	r7,r9,r2
 1003d24:	310ad83a 	srl	r5,r6,r4
 1003d28:	3084983a 	sll	r2,r6,r2
 1003d2c:	4912d83a 	srl	r9,r9,r4
 1003d30:	394ab03a 	or	r5,r7,r5
 1003d34:	1004c03a 	cmpne	r2,r2,zero
 1003d38:	288ab03a 	or	r5,r5,r2
 1003d3c:	003f5306 	br	1003a8c <__adddf3+0x268>
 1003d40:	4448b03a 	or	r4,r8,r17
 1003d44:	20003e26 	beq	r4,zero,1003e40 <__adddf3+0x61c>
 1003d48:	00c6303a 	nor	r3,zero,r3
 1003d4c:	18003a1e 	bne	r3,zero,1003e38 <__adddf3+0x614>
 1003d50:	3463c83a 	sub	r17,r6,r17
 1003d54:	4a07c83a 	sub	r3,r9,r8
 1003d58:	344d803a 	cmpltu	r6,r6,r17
 1003d5c:	1991c83a 	sub	r8,r3,r6
 1003d60:	1021883a 	mov	r16,r2
 1003d64:	3825883a 	mov	r18,r7
 1003d68:	003f0a06 	br	1003994 <__adddf3+0x170>
 1003d6c:	2023883a 	mov	r17,r4
 1003d70:	003f0d06 	br	10039a8 <__adddf3+0x184>
 1003d74:	0081ffc4 	movi	r2,2047
 1003d78:	80bf3f1e 	bne	r16,r2,1003a78 <__adddf3+0x254>
 1003d7c:	003ec806 	br	10038a0 <__adddf3+0x7c>
 1003d80:	0005883a 	mov	r2,zero
 1003d84:	003fb106 	br	1003c4c <__adddf3+0x428>
 1003d88:	0007883a 	mov	r3,zero
 1003d8c:	003fbc06 	br	1003c80 <__adddf3+0x45c>
 1003d90:	4444b03a 	or	r2,r8,r17
 1003d94:	8000871e 	bne	r16,zero,1003fb4 <__adddf3+0x790>
 1003d98:	1000ba26 	beq	r2,zero,1004084 <__adddf3+0x860>
 1003d9c:	4984b03a 	or	r2,r9,r6
 1003da0:	103ebf26 	beq	r2,zero,10038a0 <__adddf3+0x7c>
 1003da4:	8985883a 	add	r2,r17,r6
 1003da8:	4247883a 	add	r3,r8,r9
 1003dac:	1451803a 	cmpltu	r8,r2,r17
 1003db0:	40d1883a 	add	r8,r8,r3
 1003db4:	40c0202c 	andhi	r3,r8,128
 1003db8:	1023883a 	mov	r17,r2
 1003dbc:	183f1a26 	beq	r3,zero,1003a28 <__adddf3+0x204>
 1003dc0:	00bfe034 	movhi	r2,65408
 1003dc4:	10bfffc4 	addi	r2,r2,-1
 1003dc8:	2021883a 	mov	r16,r4
 1003dcc:	4090703a 	and	r8,r8,r2
 1003dd0:	003eb306 	br	10038a0 <__adddf3+0x7c>
 1003dd4:	4444b03a 	or	r2,r8,r17
 1003dd8:	8000291e 	bne	r16,zero,1003e80 <__adddf3+0x65c>
 1003ddc:	10004b1e 	bne	r2,zero,1003f0c <__adddf3+0x6e8>
 1003de0:	4990b03a 	or	r8,r9,r6
 1003de4:	40008b26 	beq	r8,zero,1004014 <__adddf3+0x7f0>
 1003de8:	4811883a 	mov	r8,r9
 1003dec:	3023883a 	mov	r17,r6
 1003df0:	3825883a 	mov	r18,r7
 1003df4:	003eaa06 	br	10038a0 <__adddf3+0x7c>
 1003df8:	1021883a 	mov	r16,r2
 1003dfc:	0011883a 	mov	r8,zero
 1003e00:	0005883a 	mov	r2,zero
 1003e04:	003f0f06 	br	1003a44 <__adddf3+0x220>
 1003e08:	217ff804 	addi	r5,r4,-32
 1003e0c:	00800804 	movi	r2,32
 1003e10:	494ad83a 	srl	r5,r9,r5
 1003e14:	20807d26 	beq	r4,r2,100400c <__adddf3+0x7e8>
 1003e18:	00801004 	movi	r2,64
 1003e1c:	1109c83a 	sub	r4,r2,r4
 1003e20:	4912983a 	sll	r9,r9,r4
 1003e24:	498cb03a 	or	r6,r9,r6
 1003e28:	300cc03a 	cmpne	r6,r6,zero
 1003e2c:	298ab03a 	or	r5,r5,r6
 1003e30:	0013883a 	mov	r9,zero
 1003e34:	003f1506 	br	1003a8c <__adddf3+0x268>
 1003e38:	0101ffc4 	movi	r4,2047
 1003e3c:	113f9a1e 	bne	r2,r4,1003ca8 <__adddf3+0x484>
 1003e40:	4811883a 	mov	r8,r9
 1003e44:	3023883a 	mov	r17,r6
 1003e48:	1021883a 	mov	r16,r2
 1003e4c:	3825883a 	mov	r18,r7
 1003e50:	003e9306 	br	10038a0 <__adddf3+0x7c>
 1003e54:	8000161e 	bne	r16,zero,1003eb0 <__adddf3+0x68c>
 1003e58:	444ab03a 	or	r5,r8,r17
 1003e5c:	28005126 	beq	r5,zero,1003fa4 <__adddf3+0x780>
 1003e60:	0108303a 	nor	r4,zero,r4
 1003e64:	20004d1e 	bne	r4,zero,1003f9c <__adddf3+0x778>
 1003e68:	89a3883a 	add	r17,r17,r6
 1003e6c:	4253883a 	add	r9,r8,r9
 1003e70:	898d803a 	cmpltu	r6,r17,r6
 1003e74:	3251883a 	add	r8,r6,r9
 1003e78:	1021883a 	mov	r16,r2
 1003e7c:	003f0806 	br	1003aa0 <__adddf3+0x27c>
 1003e80:	1000301e 	bne	r2,zero,1003f44 <__adddf3+0x720>
 1003e84:	4984b03a 	or	r2,r9,r6
 1003e88:	10007126 	beq	r2,zero,1004050 <__adddf3+0x82c>
 1003e8c:	4811883a 	mov	r8,r9
 1003e90:	3023883a 	mov	r17,r6
 1003e94:	3825883a 	mov	r18,r7
 1003e98:	0401ffc4 	movi	r16,2047
 1003e9c:	003e8006 	br	10038a0 <__adddf3+0x7c>
 1003ea0:	4462b03a 	or	r17,r8,r17
 1003ea4:	8822c03a 	cmpne	r17,r17,zero
 1003ea8:	0007883a 	mov	r3,zero
 1003eac:	003f8b06 	br	1003cdc <__adddf3+0x4b8>
 1003eb0:	0141ffc4 	movi	r5,2047
 1003eb4:	11403b26 	beq	r2,r5,1003fa4 <__adddf3+0x780>
 1003eb8:	0109c83a 	sub	r4,zero,r4
 1003ebc:	42002034 	orhi	r8,r8,128
 1003ec0:	01400e04 	movi	r5,56
 1003ec4:	29006716 	blt	r5,r4,1004064 <__adddf3+0x840>
 1003ec8:	014007c4 	movi	r5,31
 1003ecc:	29007016 	blt	r5,r4,1004090 <__adddf3+0x86c>
 1003ed0:	01400804 	movi	r5,32
 1003ed4:	290bc83a 	sub	r5,r5,r4
 1003ed8:	4154983a 	sll	r10,r8,r5
 1003edc:	890ed83a 	srl	r7,r17,r4
 1003ee0:	894a983a 	sll	r5,r17,r5
 1003ee4:	4108d83a 	srl	r4,r8,r4
 1003ee8:	51e2b03a 	or	r17,r10,r7
 1003eec:	280ac03a 	cmpne	r5,r5,zero
 1003ef0:	8962b03a 	or	r17,r17,r5
 1003ef4:	89a3883a 	add	r17,r17,r6
 1003ef8:	2253883a 	add	r9,r4,r9
 1003efc:	898d803a 	cmpltu	r6,r17,r6
 1003f00:	3251883a 	add	r8,r6,r9
 1003f04:	1021883a 	mov	r16,r2
 1003f08:	003ee506 	br	1003aa0 <__adddf3+0x27c>
 1003f0c:	4984b03a 	or	r2,r9,r6
 1003f10:	103e6326 	beq	r2,zero,10038a0 <__adddf3+0x7c>
 1003f14:	8987c83a 	sub	r3,r17,r6
 1003f18:	88c9803a 	cmpltu	r4,r17,r3
 1003f1c:	4245c83a 	sub	r2,r8,r9
 1003f20:	1105c83a 	sub	r2,r2,r4
 1003f24:	1100202c 	andhi	r4,r2,128
 1003f28:	203ebb26 	beq	r4,zero,1003a18 <__adddf3+0x1f4>
 1003f2c:	3463c83a 	sub	r17,r6,r17
 1003f30:	4a07c83a 	sub	r3,r9,r8
 1003f34:	344d803a 	cmpltu	r6,r6,r17
 1003f38:	1991c83a 	sub	r8,r3,r6
 1003f3c:	3825883a 	mov	r18,r7
 1003f40:	003e5706 	br	10038a0 <__adddf3+0x7c>
 1003f44:	4984b03a 	or	r2,r9,r6
 1003f48:	10002e26 	beq	r2,zero,1004004 <__adddf3+0x7e0>
 1003f4c:	4004d0fa 	srli	r2,r8,3
 1003f50:	8822d0fa 	srli	r17,r17,3
 1003f54:	4010977a 	slli	r8,r8,29
 1003f58:	10c0022c 	andhi	r3,r2,8
 1003f5c:	4462b03a 	or	r17,r8,r17
 1003f60:	18000826 	beq	r3,zero,1003f84 <__adddf3+0x760>
 1003f64:	4808d0fa 	srli	r4,r9,3
 1003f68:	20c0022c 	andhi	r3,r4,8
 1003f6c:	1800051e 	bne	r3,zero,1003f84 <__adddf3+0x760>
 1003f70:	300cd0fa 	srli	r6,r6,3
 1003f74:	4806977a 	slli	r3,r9,29
 1003f78:	2005883a 	mov	r2,r4
 1003f7c:	3825883a 	mov	r18,r7
 1003f80:	19a2b03a 	or	r17,r3,r6
 1003f84:	8810d77a 	srli	r8,r17,29
 1003f88:	100490fa 	slli	r2,r2,3
 1003f8c:	882290fa 	slli	r17,r17,3
 1003f90:	0401ffc4 	movi	r16,2047
 1003f94:	4090b03a 	or	r8,r8,r2
 1003f98:	003e4106 	br	10038a0 <__adddf3+0x7c>
 1003f9c:	0141ffc4 	movi	r5,2047
 1003fa0:	117fc71e 	bne	r2,r5,1003ec0 <__adddf3+0x69c>
 1003fa4:	4811883a 	mov	r8,r9
 1003fa8:	3023883a 	mov	r17,r6
 1003fac:	1021883a 	mov	r16,r2
 1003fb0:	003e3b06 	br	10038a0 <__adddf3+0x7c>
 1003fb4:	10002f26 	beq	r2,zero,1004074 <__adddf3+0x850>
 1003fb8:	4984b03a 	or	r2,r9,r6
 1003fbc:	10001126 	beq	r2,zero,1004004 <__adddf3+0x7e0>
 1003fc0:	4004d0fa 	srli	r2,r8,3
 1003fc4:	8822d0fa 	srli	r17,r17,3
 1003fc8:	4010977a 	slli	r8,r8,29
 1003fcc:	10c0022c 	andhi	r3,r2,8
 1003fd0:	4462b03a 	or	r17,r8,r17
 1003fd4:	183feb26 	beq	r3,zero,1003f84 <__adddf3+0x760>
 1003fd8:	4808d0fa 	srli	r4,r9,3
 1003fdc:	20c0022c 	andhi	r3,r4,8
 1003fe0:	183fe81e 	bne	r3,zero,1003f84 <__adddf3+0x760>
 1003fe4:	300cd0fa 	srli	r6,r6,3
 1003fe8:	4806977a 	slli	r3,r9,29
 1003fec:	2005883a 	mov	r2,r4
 1003ff0:	19a2b03a 	or	r17,r3,r6
 1003ff4:	003fe306 	br	1003f84 <__adddf3+0x760>
 1003ff8:	0011883a 	mov	r8,zero
 1003ffc:	0005883a 	mov	r2,zero
 1004000:	003e3f06 	br	1003900 <__adddf3+0xdc>
 1004004:	0401ffc4 	movi	r16,2047
 1004008:	003e2506 	br	10038a0 <__adddf3+0x7c>
 100400c:	0013883a 	mov	r9,zero
 1004010:	003f8406 	br	1003e24 <__adddf3+0x600>
 1004014:	0005883a 	mov	r2,zero
 1004018:	0007883a 	mov	r3,zero
 100401c:	003e8906 	br	1003a44 <__adddf3+0x220>
 1004020:	197ff804 	addi	r5,r3,-32
 1004024:	01000804 	movi	r4,32
 1004028:	414ad83a 	srl	r5,r8,r5
 100402c:	19002426 	beq	r3,r4,10040c0 <__adddf3+0x89c>
 1004030:	01001004 	movi	r4,64
 1004034:	20c7c83a 	sub	r3,r4,r3
 1004038:	40c6983a 	sll	r3,r8,r3
 100403c:	1c46b03a 	or	r3,r3,r17
 1004040:	1806c03a 	cmpne	r3,r3,zero
 1004044:	28e2b03a 	or	r17,r5,r3
 1004048:	0007883a 	mov	r3,zero
 100404c:	003f2306 	br	1003cdc <__adddf3+0x4b8>
 1004050:	0007883a 	mov	r3,zero
 1004054:	5811883a 	mov	r8,r11
 1004058:	00bfffc4 	movi	r2,-1
 100405c:	0401ffc4 	movi	r16,2047
 1004060:	003e7806 	br	1003a44 <__adddf3+0x220>
 1004064:	4462b03a 	or	r17,r8,r17
 1004068:	8822c03a 	cmpne	r17,r17,zero
 100406c:	0009883a 	mov	r4,zero
 1004070:	003fa006 	br	1003ef4 <__adddf3+0x6d0>
 1004074:	4811883a 	mov	r8,r9
 1004078:	3023883a 	mov	r17,r6
 100407c:	0401ffc4 	movi	r16,2047
 1004080:	003e0706 	br	10038a0 <__adddf3+0x7c>
 1004084:	4811883a 	mov	r8,r9
 1004088:	3023883a 	mov	r17,r6
 100408c:	003e0406 	br	10038a0 <__adddf3+0x7c>
 1004090:	21fff804 	addi	r7,r4,-32
 1004094:	01400804 	movi	r5,32
 1004098:	41ced83a 	srl	r7,r8,r7
 100409c:	21400a26 	beq	r4,r5,10040c8 <__adddf3+0x8a4>
 10040a0:	01401004 	movi	r5,64
 10040a4:	2909c83a 	sub	r4,r5,r4
 10040a8:	4108983a 	sll	r4,r8,r4
 10040ac:	2448b03a 	or	r4,r4,r17
 10040b0:	2008c03a 	cmpne	r4,r4,zero
 10040b4:	3922b03a 	or	r17,r7,r4
 10040b8:	0009883a 	mov	r4,zero
 10040bc:	003f8d06 	br	1003ef4 <__adddf3+0x6d0>
 10040c0:	0007883a 	mov	r3,zero
 10040c4:	003fdd06 	br	100403c <__adddf3+0x818>
 10040c8:	0009883a 	mov	r4,zero
 10040cc:	003ff706 	br	10040ac <__adddf3+0x888>

010040d0 <__eqdf2>:
 10040d0:	2804d53a 	srli	r2,r5,20
 10040d4:	3806d53a 	srli	r3,r7,20
 10040d8:	02000434 	movhi	r8,16
 10040dc:	423fffc4 	addi	r8,r8,-1
 10040e0:	1081ffcc 	andi	r2,r2,2047
 10040e4:	0281ffc4 	movi	r10,2047
 10040e8:	2a12703a 	and	r9,r5,r8
 10040ec:	18c1ffcc 	andi	r3,r3,2047
 10040f0:	3a10703a 	and	r8,r7,r8
 10040f4:	280ad7fa 	srli	r5,r5,31
 10040f8:	380ed7fa 	srli	r7,r7,31
 10040fc:	12801026 	beq	r2,r10,1004140 <__eqdf2+0x70>
 1004100:	0281ffc4 	movi	r10,2047
 1004104:	1a800a26 	beq	r3,r10,1004130 <__eqdf2+0x60>
 1004108:	10c00226 	beq	r2,r3,1004114 <__eqdf2+0x44>
 100410c:	00800044 	movi	r2,1
 1004110:	f800283a 	ret
 1004114:	4a3ffd1e 	bne	r9,r8,100410c <__eqdf2+0x3c>
 1004118:	21bffc1e 	bne	r4,r6,100410c <__eqdf2+0x3c>
 100411c:	29c00c26 	beq	r5,r7,1004150 <__eqdf2+0x80>
 1004120:	103ffa1e 	bne	r2,zero,100410c <__eqdf2+0x3c>
 1004124:	2244b03a 	or	r2,r4,r9
 1004128:	1004c03a 	cmpne	r2,r2,zero
 100412c:	f800283a 	ret
 1004130:	3214b03a 	or	r10,r6,r8
 1004134:	503ff426 	beq	r10,zero,1004108 <__eqdf2+0x38>
 1004138:	00800044 	movi	r2,1
 100413c:	f800283a 	ret
 1004140:	2254b03a 	or	r10,r4,r9
 1004144:	503fee26 	beq	r10,zero,1004100 <__eqdf2+0x30>
 1004148:	00800044 	movi	r2,1
 100414c:	f800283a 	ret
 1004150:	0005883a 	mov	r2,zero
 1004154:	f800283a 	ret

01004158 <__gedf2>:
 1004158:	2804d53a 	srli	r2,r5,20
 100415c:	3806d53a 	srli	r3,r7,20
 1004160:	02000434 	movhi	r8,16
 1004164:	423fffc4 	addi	r8,r8,-1
 1004168:	1081ffcc 	andi	r2,r2,2047
 100416c:	0241ffc4 	movi	r9,2047
 1004170:	2a14703a 	and	r10,r5,r8
 1004174:	18c1ffcc 	andi	r3,r3,2047
 1004178:	3a10703a 	and	r8,r7,r8
 100417c:	280ad7fa 	srli	r5,r5,31
 1004180:	380ed7fa 	srli	r7,r7,31
 1004184:	12401d26 	beq	r2,r9,10041fc <__gedf2+0xa4>
 1004188:	0241ffc4 	movi	r9,2047
 100418c:	1a401226 	beq	r3,r9,10041d8 <__gedf2+0x80>
 1004190:	1000081e 	bne	r2,zero,10041b4 <__gedf2+0x5c>
 1004194:	2296b03a 	or	r11,r4,r10
 1004198:	5813003a 	cmpeq	r9,r11,zero
 100419c:	1800091e 	bne	r3,zero,10041c4 <__gedf2+0x6c>
 10041a0:	3218b03a 	or	r12,r6,r8
 10041a4:	6000071e 	bne	r12,zero,10041c4 <__gedf2+0x6c>
 10041a8:	0005883a 	mov	r2,zero
 10041ac:	5800101e 	bne	r11,zero,10041f0 <__gedf2+0x98>
 10041b0:	f800283a 	ret
 10041b4:	18000c1e 	bne	r3,zero,10041e8 <__gedf2+0x90>
 10041b8:	3212b03a 	or	r9,r6,r8
 10041bc:	48000c26 	beq	r9,zero,10041f0 <__gedf2+0x98>
 10041c0:	0013883a 	mov	r9,zero
 10041c4:	39c03fcc 	andi	r7,r7,255
 10041c8:	48000826 	beq	r9,zero,10041ec <__gedf2+0x94>
 10041cc:	38000926 	beq	r7,zero,10041f4 <__gedf2+0x9c>
 10041d0:	00800044 	movi	r2,1
 10041d4:	f800283a 	ret
 10041d8:	3212b03a 	or	r9,r6,r8
 10041dc:	483fec26 	beq	r9,zero,1004190 <__gedf2+0x38>
 10041e0:	00bfff84 	movi	r2,-2
 10041e4:	f800283a 	ret
 10041e8:	39c03fcc 	andi	r7,r7,255
 10041ec:	29c00626 	beq	r5,r7,1004208 <__gedf2+0xb0>
 10041f0:	283ff726 	beq	r5,zero,10041d0 <__gedf2+0x78>
 10041f4:	00bfffc4 	movi	r2,-1
 10041f8:	f800283a 	ret
 10041fc:	2292b03a 	or	r9,r4,r10
 1004200:	483fe126 	beq	r9,zero,1004188 <__gedf2+0x30>
 1004204:	003ff606 	br	10041e0 <__gedf2+0x88>
 1004208:	18bff916 	blt	r3,r2,10041f0 <__gedf2+0x98>
 100420c:	10c00316 	blt	r2,r3,100421c <__gedf2+0xc4>
 1004210:	42bff736 	bltu	r8,r10,10041f0 <__gedf2+0x98>
 1004214:	52000326 	beq	r10,r8,1004224 <__gedf2+0xcc>
 1004218:	5200042e 	bgeu	r10,r8,100422c <__gedf2+0xd4>
 100421c:	283fec1e 	bne	r5,zero,10041d0 <__gedf2+0x78>
 1004220:	003ff406 	br	10041f4 <__gedf2+0x9c>
 1004224:	313ff236 	bltu	r6,r4,10041f0 <__gedf2+0x98>
 1004228:	21bffc36 	bltu	r4,r6,100421c <__gedf2+0xc4>
 100422c:	0005883a 	mov	r2,zero
 1004230:	f800283a 	ret

01004234 <__muldf3>:
 1004234:	deffee04 	addi	sp,sp,-72
 1004238:	dd000c15 	stw	r20,48(sp)
 100423c:	2828d53a 	srli	r20,r5,20
 1004240:	ddc00f15 	stw	r23,60(sp)
 1004244:	282ed7fa 	srli	r23,r5,31
 1004248:	dc000815 	stw	r16,32(sp)
 100424c:	04000434 	movhi	r16,16
 1004250:	dcc00b15 	stw	r19,44(sp)
 1004254:	843fffc4 	addi	r16,r16,-1
 1004258:	dfc01115 	stw	ra,68(sp)
 100425c:	df001015 	stw	fp,64(sp)
 1004260:	dd800e15 	stw	r22,56(sp)
 1004264:	dd400d15 	stw	r21,52(sp)
 1004268:	dc800a15 	stw	r18,40(sp)
 100426c:	dc400915 	stw	r17,36(sp)
 1004270:	a501ffcc 	andi	r20,r20,2047
 1004274:	2c20703a 	and	r16,r5,r16
 1004278:	b827883a 	mov	r19,r23
 100427c:	ba403fcc 	andi	r9,r23,255
 1004280:	a0006026 	beq	r20,zero,1004404 <__muldf3+0x1d0>
 1004284:	0081ffc4 	movi	r2,2047
 1004288:	202d883a 	mov	r22,r4
 100428c:	a0803626 	beq	r20,r2,1004368 <__muldf3+0x134>
 1004290:	84000434 	orhi	r16,r16,16
 1004294:	200ad77a 	srli	r5,r4,29
 1004298:	800490fa 	slli	r2,r16,3
 100429c:	202c90fa 	slli	r22,r4,3
 10042a0:	a53f0044 	addi	r20,r20,-1023
 10042a4:	28a0b03a 	or	r16,r5,r2
 10042a8:	002b883a 	mov	r21,zero
 10042ac:	000b883a 	mov	r5,zero
 10042b0:	3804d53a 	srli	r2,r7,20
 10042b4:	3838d7fa 	srli	fp,r7,31
 10042b8:	04400434 	movhi	r17,16
 10042bc:	8c7fffc4 	addi	r17,r17,-1
 10042c0:	1081ffcc 	andi	r2,r2,2047
 10042c4:	3025883a 	mov	r18,r6
 10042c8:	3c62703a 	and	r17,r7,r17
 10042cc:	e2803fcc 	andi	r10,fp,255
 10042d0:	10006d26 	beq	r2,zero,1004488 <__muldf3+0x254>
 10042d4:	00c1ffc4 	movi	r3,2047
 10042d8:	10c06526 	beq	r2,r3,1004470 <__muldf3+0x23c>
 10042dc:	8c400434 	orhi	r17,r17,16
 10042e0:	300ed77a 	srli	r7,r6,29
 10042e4:	880690fa 	slli	r3,r17,3
 10042e8:	302490fa 	slli	r18,r6,3
 10042ec:	10bf0044 	addi	r2,r2,-1023
 10042f0:	38e2b03a 	or	r17,r7,r3
 10042f4:	000f883a 	mov	r7,zero
 10042f8:	a087883a 	add	r3,r20,r2
 10042fc:	010003c4 	movi	r4,15
 1004300:	3d44b03a 	or	r2,r7,r21
 1004304:	e5ccf03a 	xor	r6,fp,r23
 1004308:	1a000044 	addi	r8,r3,1
 100430c:	20809b36 	bltu	r4,r2,100457c <__muldf3+0x348>
 1004310:	100490ba 	slli	r2,r2,2
 1004314:	01004034 	movhi	r4,256
 1004318:	2110ca04 	addi	r4,r4,17192
 100431c:	1105883a 	add	r2,r2,r4
 1004320:	10800017 	ldw	r2,0(r2)
 1004324:	1000683a 	jmp	r2
 1004328:	0100457c 	xorhi	r4,zero,277
 100432c:	01004388 	cmpgei	r4,zero,270
 1004330:	01004388 	cmpgei	r4,zero,270
 1004334:	01004384 	movi	r4,270
 1004338:	01004558 	cmpnei	r4,zero,277
 100433c:	01004558 	cmpnei	r4,zero,277
 1004340:	01004540 	call	100454 <__alt_mem_sdram_controller-0xeffbac>
 1004344:	01004384 	movi	r4,270
 1004348:	01004558 	cmpnei	r4,zero,277
 100434c:	01004540 	call	100454 <__alt_mem_sdram_controller-0xeffbac>
 1004350:	01004558 	cmpnei	r4,zero,277
 1004354:	01004384 	movi	r4,270
 1004358:	01004568 	cmpgeui	r4,zero,277
 100435c:	01004568 	cmpgeui	r4,zero,277
 1004360:	01004568 	cmpgeui	r4,zero,277
 1004364:	010048c8 	cmpgei	r4,zero,291
 1004368:	2404b03a 	or	r2,r4,r16
 100436c:	1000711e 	bne	r2,zero,1004534 <__muldf3+0x300>
 1004370:	05400204 	movi	r21,8
 1004374:	0021883a 	mov	r16,zero
 1004378:	002d883a 	mov	r22,zero
 100437c:	01400084 	movi	r5,2
 1004380:	003fcb06 	br	10042b0 <__muldf3+0x7c>
 1004384:	500d883a 	mov	r6,r10
 1004388:	00800084 	movi	r2,2
 100438c:	38805926 	beq	r7,r2,10044f4 <__muldf3+0x2c0>
 1004390:	008000c4 	movi	r2,3
 1004394:	3881bb26 	beq	r7,r2,1004a84 <__muldf3+0x850>
 1004398:	00800044 	movi	r2,1
 100439c:	3881961e 	bne	r7,r2,10049f8 <__muldf3+0x7c4>
 10043a0:	3027883a 	mov	r19,r6
 10043a4:	0005883a 	mov	r2,zero
 10043a8:	0021883a 	mov	r16,zero
 10043ac:	002d883a 	mov	r22,zero
 10043b0:	1004953a 	slli	r2,r2,20
 10043b4:	98c03fcc 	andi	r3,r19,255
 10043b8:	04400434 	movhi	r17,16
 10043bc:	8c7fffc4 	addi	r17,r17,-1
 10043c0:	180697fa 	slli	r3,r3,31
 10043c4:	8460703a 	and	r16,r16,r17
 10043c8:	80a0b03a 	or	r16,r16,r2
 10043cc:	80c6b03a 	or	r3,r16,r3
 10043d0:	b005883a 	mov	r2,r22
 10043d4:	dfc01117 	ldw	ra,68(sp)
 10043d8:	df001017 	ldw	fp,64(sp)
 10043dc:	ddc00f17 	ldw	r23,60(sp)
 10043e0:	dd800e17 	ldw	r22,56(sp)
 10043e4:	dd400d17 	ldw	r21,52(sp)
 10043e8:	dd000c17 	ldw	r20,48(sp)
 10043ec:	dcc00b17 	ldw	r19,44(sp)
 10043f0:	dc800a17 	ldw	r18,40(sp)
 10043f4:	dc400917 	ldw	r17,36(sp)
 10043f8:	dc000817 	ldw	r16,32(sp)
 10043fc:	dec01204 	addi	sp,sp,72
 1004400:	f800283a 	ret
 1004404:	2404b03a 	or	r2,r4,r16
 1004408:	202b883a 	mov	r21,r4
 100440c:	10004426 	beq	r2,zero,1004520 <__muldf3+0x2ec>
 1004410:	80015126 	beq	r16,zero,1004958 <__muldf3+0x724>
 1004414:	8009883a 	mov	r4,r16
 1004418:	d9800715 	stw	r6,28(sp)
 100441c:	d9c00215 	stw	r7,8(sp)
 1004420:	da400415 	stw	r9,16(sp)
 1004424:	10056a00 	call	10056a0 <__clzsi2>
 1004428:	d9800717 	ldw	r6,28(sp)
 100442c:	d9c00217 	ldw	r7,8(sp)
 1004430:	da400417 	ldw	r9,16(sp)
 1004434:	113ffd44 	addi	r4,r2,-11
 1004438:	00c00704 	movi	r3,28
 100443c:	19014216 	blt	r3,r4,1004948 <__muldf3+0x714>
 1004440:	00c00744 	movi	r3,29
 1004444:	15bffe04 	addi	r22,r2,-8
 1004448:	1907c83a 	sub	r3,r3,r4
 100444c:	85a0983a 	sll	r16,r16,r22
 1004450:	a8c6d83a 	srl	r3,r21,r3
 1004454:	adac983a 	sll	r22,r21,r22
 1004458:	1c20b03a 	or	r16,r3,r16
 100445c:	1080fcc4 	addi	r2,r2,1011
 1004460:	00a9c83a 	sub	r20,zero,r2
 1004464:	002b883a 	mov	r21,zero
 1004468:	000b883a 	mov	r5,zero
 100446c:	003f9006 	br	10042b0 <__muldf3+0x7c>
 1004470:	3446b03a 	or	r3,r6,r17
 1004474:	1800281e 	bne	r3,zero,1004518 <__muldf3+0x2e4>
 1004478:	0023883a 	mov	r17,zero
 100447c:	0025883a 	mov	r18,zero
 1004480:	01c00084 	movi	r7,2
 1004484:	003f9c06 	br	10042f8 <__muldf3+0xc4>
 1004488:	3446b03a 	or	r3,r6,r17
 100448c:	18001e26 	beq	r3,zero,1004508 <__muldf3+0x2d4>
 1004490:	88012126 	beq	r17,zero,1004918 <__muldf3+0x6e4>
 1004494:	8809883a 	mov	r4,r17
 1004498:	d9400215 	stw	r5,8(sp)
 100449c:	d9800715 	stw	r6,28(sp)
 10044a0:	da400415 	stw	r9,16(sp)
 10044a4:	da800315 	stw	r10,12(sp)
 10044a8:	10056a00 	call	10056a0 <__clzsi2>
 10044ac:	d9400217 	ldw	r5,8(sp)
 10044b0:	d9800717 	ldw	r6,28(sp)
 10044b4:	da400417 	ldw	r9,16(sp)
 10044b8:	da800317 	ldw	r10,12(sp)
 10044bc:	113ffd44 	addi	r4,r2,-11
 10044c0:	00c00704 	movi	r3,28
 10044c4:	19011016 	blt	r3,r4,1004908 <__muldf3+0x6d4>
 10044c8:	00c00744 	movi	r3,29
 10044cc:	14bffe04 	addi	r18,r2,-8
 10044d0:	1907c83a 	sub	r3,r3,r4
 10044d4:	8ca2983a 	sll	r17,r17,r18
 10044d8:	30c6d83a 	srl	r3,r6,r3
 10044dc:	34a4983a 	sll	r18,r6,r18
 10044e0:	1c62b03a 	or	r17,r3,r17
 10044e4:	1080fcc4 	addi	r2,r2,1011
 10044e8:	0085c83a 	sub	r2,zero,r2
 10044ec:	000f883a 	mov	r7,zero
 10044f0:	003f8106 	br	10042f8 <__muldf3+0xc4>
 10044f4:	3027883a 	mov	r19,r6
 10044f8:	0081ffc4 	movi	r2,2047
 10044fc:	0021883a 	mov	r16,zero
 1004500:	002d883a 	mov	r22,zero
 1004504:	003faa06 	br	10043b0 <__muldf3+0x17c>
 1004508:	0023883a 	mov	r17,zero
 100450c:	0025883a 	mov	r18,zero
 1004510:	01c00044 	movi	r7,1
 1004514:	003f7806 	br	10042f8 <__muldf3+0xc4>
 1004518:	01c000c4 	movi	r7,3
 100451c:	003f7606 	br	10042f8 <__muldf3+0xc4>
 1004520:	05400104 	movi	r21,4
 1004524:	0021883a 	mov	r16,zero
 1004528:	002d883a 	mov	r22,zero
 100452c:	01400044 	movi	r5,1
 1004530:	003f5f06 	br	10042b0 <__muldf3+0x7c>
 1004534:	05400304 	movi	r21,12
 1004538:	014000c4 	movi	r5,3
 100453c:	003f5c06 	br	10042b0 <__muldf3+0x7c>
 1004540:	04000434 	movhi	r16,16
 1004544:	0027883a 	mov	r19,zero
 1004548:	843fffc4 	addi	r16,r16,-1
 100454c:	05bfffc4 	movi	r22,-1
 1004550:	0081ffc4 	movi	r2,2047
 1004554:	003f9606 	br	10043b0 <__muldf3+0x17c>
 1004558:	8023883a 	mov	r17,r16
 100455c:	b025883a 	mov	r18,r22
 1004560:	280f883a 	mov	r7,r5
 1004564:	003f8806 	br	1004388 <__muldf3+0x154>
 1004568:	8023883a 	mov	r17,r16
 100456c:	b025883a 	mov	r18,r22
 1004570:	480d883a 	mov	r6,r9
 1004574:	280f883a 	mov	r7,r5
 1004578:	003f8306 	br	1004388 <__muldf3+0x154>
 100457c:	b026d43a 	srli	r19,r22,16
 1004580:	902ed43a 	srli	r23,r18,16
 1004584:	b5bfffcc 	andi	r22,r22,65535
 1004588:	94bfffcc 	andi	r18,r18,65535
 100458c:	b00b883a 	mov	r5,r22
 1004590:	9009883a 	mov	r4,r18
 1004594:	d8c00515 	stw	r3,20(sp)
 1004598:	d9800715 	stw	r6,28(sp)
 100459c:	da000615 	stw	r8,24(sp)
 10045a0:	1002e940 	call	1002e94 <__mulsi3>
 10045a4:	980b883a 	mov	r5,r19
 10045a8:	9009883a 	mov	r4,r18
 10045ac:	1029883a 	mov	r20,r2
 10045b0:	1002e940 	call	1002e94 <__mulsi3>
 10045b4:	b80b883a 	mov	r5,r23
 10045b8:	9809883a 	mov	r4,r19
 10045bc:	102b883a 	mov	r21,r2
 10045c0:	1002e940 	call	1002e94 <__mulsi3>
 10045c4:	b809883a 	mov	r4,r23
 10045c8:	b00b883a 	mov	r5,r22
 10045cc:	1039883a 	mov	fp,r2
 10045d0:	1002e940 	call	1002e94 <__mulsi3>
 10045d4:	a008d43a 	srli	r4,r20,16
 10045d8:	1545883a 	add	r2,r2,r21
 10045dc:	d8c00517 	ldw	r3,20(sp)
 10045e0:	2085883a 	add	r2,r4,r2
 10045e4:	d9800717 	ldw	r6,28(sp)
 10045e8:	da000617 	ldw	r8,24(sp)
 10045ec:	1540022e 	bgeu	r2,r21,10045f8 <__muldf3+0x3c4>
 10045f0:	01000074 	movhi	r4,1
 10045f4:	e139883a 	add	fp,fp,r4
 10045f8:	100e943a 	slli	r7,r2,16
 10045fc:	1004d43a 	srli	r2,r2,16
 1004600:	882ad43a 	srli	r21,r17,16
 1004604:	a53fffcc 	andi	r20,r20,65535
 1004608:	8c7fffcc 	andi	r17,r17,65535
 100460c:	3d29883a 	add	r20,r7,r20
 1004610:	b00b883a 	mov	r5,r22
 1004614:	8809883a 	mov	r4,r17
 1004618:	d8c00515 	stw	r3,20(sp)
 100461c:	d9800715 	stw	r6,28(sp)
 1004620:	da000615 	stw	r8,24(sp)
 1004624:	dd000115 	stw	r20,4(sp)
 1004628:	d8800015 	stw	r2,0(sp)
 100462c:	1002e940 	call	1002e94 <__mulsi3>
 1004630:	980b883a 	mov	r5,r19
 1004634:	8809883a 	mov	r4,r17
 1004638:	d8800215 	stw	r2,8(sp)
 100463c:	1002e940 	call	1002e94 <__mulsi3>
 1004640:	9809883a 	mov	r4,r19
 1004644:	a80b883a 	mov	r5,r21
 1004648:	1029883a 	mov	r20,r2
 100464c:	1002e940 	call	1002e94 <__mulsi3>
 1004650:	b00b883a 	mov	r5,r22
 1004654:	a809883a 	mov	r4,r21
 1004658:	d8800415 	stw	r2,16(sp)
 100465c:	1002e940 	call	1002e94 <__mulsi3>
 1004660:	d9c00217 	ldw	r7,8(sp)
 1004664:	1505883a 	add	r2,r2,r20
 1004668:	d8c00517 	ldw	r3,20(sp)
 100466c:	3826d43a 	srli	r19,r7,16
 1004670:	d9800717 	ldw	r6,28(sp)
 1004674:	da000617 	ldw	r8,24(sp)
 1004678:	9885883a 	add	r2,r19,r2
 100467c:	da400417 	ldw	r9,16(sp)
 1004680:	1500022e 	bgeu	r2,r20,100468c <__muldf3+0x458>
 1004684:	01000074 	movhi	r4,1
 1004688:	4913883a 	add	r9,r9,r4
 100468c:	1028d43a 	srli	r20,r2,16
 1004690:	1004943a 	slli	r2,r2,16
 1004694:	802cd43a 	srli	r22,r16,16
 1004698:	843fffcc 	andi	r16,r16,65535
 100469c:	3cffffcc 	andi	r19,r7,65535
 10046a0:	9009883a 	mov	r4,r18
 10046a4:	800b883a 	mov	r5,r16
 10046a8:	a269883a 	add	r20,r20,r9
 10046ac:	d8c00515 	stw	r3,20(sp)
 10046b0:	d9800715 	stw	r6,28(sp)
 10046b4:	da000615 	stw	r8,24(sp)
 10046b8:	14e7883a 	add	r19,r2,r19
 10046bc:	1002e940 	call	1002e94 <__mulsi3>
 10046c0:	9009883a 	mov	r4,r18
 10046c4:	b00b883a 	mov	r5,r22
 10046c8:	d8800315 	stw	r2,12(sp)
 10046cc:	1002e940 	call	1002e94 <__mulsi3>
 10046d0:	b809883a 	mov	r4,r23
 10046d4:	b00b883a 	mov	r5,r22
 10046d8:	d8800215 	stw	r2,8(sp)
 10046dc:	1002e940 	call	1002e94 <__mulsi3>
 10046e0:	b80b883a 	mov	r5,r23
 10046e4:	8009883a 	mov	r4,r16
 10046e8:	d8800415 	stw	r2,16(sp)
 10046ec:	1002e940 	call	1002e94 <__mulsi3>
 10046f0:	da800317 	ldw	r10,12(sp)
 10046f4:	d9c00217 	ldw	r7,8(sp)
 10046f8:	d9000017 	ldw	r4,0(sp)
 10046fc:	502ed43a 	srli	r23,r10,16
 1004700:	11c5883a 	add	r2,r2,r7
 1004704:	24e5883a 	add	r18,r4,r19
 1004708:	b885883a 	add	r2,r23,r2
 100470c:	d8c00517 	ldw	r3,20(sp)
 1004710:	d9800717 	ldw	r6,28(sp)
 1004714:	da000617 	ldw	r8,24(sp)
 1004718:	da400417 	ldw	r9,16(sp)
 100471c:	11c0022e 	bgeu	r2,r7,1004728 <__muldf3+0x4f4>
 1004720:	01000074 	movhi	r4,1
 1004724:	4913883a 	add	r9,r9,r4
 1004728:	100ed43a 	srli	r7,r2,16
 100472c:	1004943a 	slli	r2,r2,16
 1004730:	55ffffcc 	andi	r23,r10,65535
 1004734:	3a53883a 	add	r9,r7,r9
 1004738:	8809883a 	mov	r4,r17
 100473c:	800b883a 	mov	r5,r16
 1004740:	d8c00515 	stw	r3,20(sp)
 1004744:	d9800715 	stw	r6,28(sp)
 1004748:	da000615 	stw	r8,24(sp)
 100474c:	da400415 	stw	r9,16(sp)
 1004750:	15ef883a 	add	r23,r2,r23
 1004754:	1002e940 	call	1002e94 <__mulsi3>
 1004758:	8809883a 	mov	r4,r17
 100475c:	b00b883a 	mov	r5,r22
 1004760:	d8800215 	stw	r2,8(sp)
 1004764:	1002e940 	call	1002e94 <__mulsi3>
 1004768:	b00b883a 	mov	r5,r22
 100476c:	a809883a 	mov	r4,r21
 1004770:	d8800315 	stw	r2,12(sp)
 1004774:	1002e940 	call	1002e94 <__mulsi3>
 1004778:	8009883a 	mov	r4,r16
 100477c:	a80b883a 	mov	r5,r21
 1004780:	1023883a 	mov	r17,r2
 1004784:	1002e940 	call	1002e94 <__mulsi3>
 1004788:	d9c00217 	ldw	r7,8(sp)
 100478c:	da800317 	ldw	r10,12(sp)
 1004790:	d8c00517 	ldw	r3,20(sp)
 1004794:	3808d43a 	srli	r4,r7,16
 1004798:	1285883a 	add	r2,r2,r10
 100479c:	d9800717 	ldw	r6,28(sp)
 10047a0:	2085883a 	add	r2,r4,r2
 10047a4:	da000617 	ldw	r8,24(sp)
 10047a8:	da400417 	ldw	r9,16(sp)
 10047ac:	1280022e 	bgeu	r2,r10,10047b8 <__muldf3+0x584>
 10047b0:	01000074 	movhi	r4,1
 10047b4:	8923883a 	add	r17,r17,r4
 10047b8:	1008943a 	slli	r4,r2,16
 10047bc:	39ffffcc 	andi	r7,r7,65535
 10047c0:	e4b9883a 	add	fp,fp,r18
 10047c4:	21cf883a 	add	r7,r4,r7
 10047c8:	e4e7803a 	cmpltu	r19,fp,r19
 10047cc:	3d0f883a 	add	r7,r7,r20
 10047d0:	bf39883a 	add	fp,r23,fp
 10047d4:	99c9883a 	add	r4,r19,r7
 10047d8:	e5ef803a 	cmpltu	r23,fp,r23
 10047dc:	490b883a 	add	r5,r9,r4
 10047e0:	1004d43a 	srli	r2,r2,16
 10047e4:	b965883a 	add	r18,r23,r5
 10047e8:	24c9803a 	cmpltu	r4,r4,r19
 10047ec:	3d29803a 	cmpltu	r20,r7,r20
 10047f0:	a128b03a 	or	r20,r20,r4
 10047f4:	95ef803a 	cmpltu	r23,r18,r23
 10047f8:	2a53803a 	cmpltu	r9,r5,r9
 10047fc:	a0a9883a 	add	r20,r20,r2
 1004800:	4deeb03a 	or	r23,r9,r23
 1004804:	a5ef883a 	add	r23,r20,r23
 1004808:	bc63883a 	add	r17,r23,r17
 100480c:	e004927a 	slli	r2,fp,9
 1004810:	d9000117 	ldw	r4,4(sp)
 1004814:	882e927a 	slli	r23,r17,9
 1004818:	9022d5fa 	srli	r17,r18,23
 100481c:	e038d5fa 	srli	fp,fp,23
 1004820:	1104b03a 	or	r2,r2,r4
 1004824:	9024927a 	slli	r18,r18,9
 1004828:	1004c03a 	cmpne	r2,r2,zero
 100482c:	bc62b03a 	or	r17,r23,r17
 1004830:	1738b03a 	or	fp,r2,fp
 1004834:	8880402c 	andhi	r2,r17,256
 1004838:	e4a4b03a 	or	r18,fp,r18
 100483c:	10000726 	beq	r2,zero,100485c <__muldf3+0x628>
 1004840:	9006d07a 	srli	r3,r18,1
 1004844:	880497fa 	slli	r2,r17,31
 1004848:	9480004c 	andi	r18,r18,1
 100484c:	8822d07a 	srli	r17,r17,1
 1004850:	1ca4b03a 	or	r18,r3,r18
 1004854:	14a4b03a 	or	r18,r2,r18
 1004858:	4007883a 	mov	r3,r8
 100485c:	1880ffc4 	addi	r2,r3,1023
 1004860:	0080460e 	bge	zero,r2,100497c <__muldf3+0x748>
 1004864:	910001cc 	andi	r4,r18,7
 1004868:	20000726 	beq	r4,zero,1004888 <__muldf3+0x654>
 100486c:	910003cc 	andi	r4,r18,15
 1004870:	01400104 	movi	r5,4
 1004874:	21400426 	beq	r4,r5,1004888 <__muldf3+0x654>
 1004878:	9149883a 	add	r4,r18,r5
 100487c:	24a5803a 	cmpltu	r18,r4,r18
 1004880:	8ca3883a 	add	r17,r17,r18
 1004884:	2025883a 	mov	r18,r4
 1004888:	8900402c 	andhi	r4,r17,256
 100488c:	20000426 	beq	r4,zero,10048a0 <__muldf3+0x66c>
 1004890:	18810004 	addi	r2,r3,1024
 1004894:	00ffc034 	movhi	r3,65280
 1004898:	18ffffc4 	addi	r3,r3,-1
 100489c:	88e2703a 	and	r17,r17,r3
 10048a0:	00c1ff84 	movi	r3,2046
 10048a4:	18bf1316 	blt	r3,r2,10044f4 <__muldf3+0x2c0>
 10048a8:	882c977a 	slli	r22,r17,29
 10048ac:	9024d0fa 	srli	r18,r18,3
 10048b0:	8822927a 	slli	r17,r17,9
 10048b4:	1081ffcc 	andi	r2,r2,2047
 10048b8:	b4acb03a 	or	r22,r22,r18
 10048bc:	8820d33a 	srli	r16,r17,12
 10048c0:	3027883a 	mov	r19,r6
 10048c4:	003eba06 	br	10043b0 <__muldf3+0x17c>
 10048c8:	8080022c 	andhi	r2,r16,8
 10048cc:	10000926 	beq	r2,zero,10048f4 <__muldf3+0x6c0>
 10048d0:	8880022c 	andhi	r2,r17,8
 10048d4:	1000071e 	bne	r2,zero,10048f4 <__muldf3+0x6c0>
 10048d8:	00800434 	movhi	r2,16
 10048dc:	8c000234 	orhi	r16,r17,8
 10048e0:	10bfffc4 	addi	r2,r2,-1
 10048e4:	e027883a 	mov	r19,fp
 10048e8:	80a0703a 	and	r16,r16,r2
 10048ec:	902d883a 	mov	r22,r18
 10048f0:	003f1706 	br	1004550 <__muldf3+0x31c>
 10048f4:	00800434 	movhi	r2,16
 10048f8:	84000234 	orhi	r16,r16,8
 10048fc:	10bfffc4 	addi	r2,r2,-1
 1004900:	80a0703a 	and	r16,r16,r2
 1004904:	003f1206 	br	1004550 <__muldf3+0x31c>
 1004908:	147ff604 	addi	r17,r2,-40
 100490c:	3462983a 	sll	r17,r6,r17
 1004910:	0025883a 	mov	r18,zero
 1004914:	003ef306 	br	10044e4 <__muldf3+0x2b0>
 1004918:	3009883a 	mov	r4,r6
 100491c:	d9400215 	stw	r5,8(sp)
 1004920:	d9800715 	stw	r6,28(sp)
 1004924:	da400415 	stw	r9,16(sp)
 1004928:	da800315 	stw	r10,12(sp)
 100492c:	10056a00 	call	10056a0 <__clzsi2>
 1004930:	10800804 	addi	r2,r2,32
 1004934:	da800317 	ldw	r10,12(sp)
 1004938:	da400417 	ldw	r9,16(sp)
 100493c:	d9800717 	ldw	r6,28(sp)
 1004940:	d9400217 	ldw	r5,8(sp)
 1004944:	003edd06 	br	10044bc <__muldf3+0x288>
 1004948:	143ff604 	addi	r16,r2,-40
 100494c:	ac20983a 	sll	r16,r21,r16
 1004950:	002d883a 	mov	r22,zero
 1004954:	003ec106 	br	100445c <__muldf3+0x228>
 1004958:	d9800715 	stw	r6,28(sp)
 100495c:	d9c00215 	stw	r7,8(sp)
 1004960:	da400415 	stw	r9,16(sp)
 1004964:	10056a00 	call	10056a0 <__clzsi2>
 1004968:	10800804 	addi	r2,r2,32
 100496c:	da400417 	ldw	r9,16(sp)
 1004970:	d9c00217 	ldw	r7,8(sp)
 1004974:	d9800717 	ldw	r6,28(sp)
 1004978:	003eae06 	br	1004434 <__muldf3+0x200>
 100497c:	00c00044 	movi	r3,1
 1004980:	1887c83a 	sub	r3,r3,r2
 1004984:	01000e04 	movi	r4,56
 1004988:	20fe8516 	blt	r4,r3,10043a0 <__muldf3+0x16c>
 100498c:	010007c4 	movi	r4,31
 1004990:	20c01b16 	blt	r4,r3,1004a00 <__muldf3+0x7cc>
 1004994:	00800804 	movi	r2,32
 1004998:	10c5c83a 	sub	r2,r2,r3
 100499c:	888a983a 	sll	r5,r17,r2
 10049a0:	90c8d83a 	srl	r4,r18,r3
 10049a4:	9084983a 	sll	r2,r18,r2
 10049a8:	88e2d83a 	srl	r17,r17,r3
 10049ac:	2906b03a 	or	r3,r5,r4
 10049b0:	1004c03a 	cmpne	r2,r2,zero
 10049b4:	1886b03a 	or	r3,r3,r2
 10049b8:	188001cc 	andi	r2,r3,7
 10049bc:	10000726 	beq	r2,zero,10049dc <__muldf3+0x7a8>
 10049c0:	188003cc 	andi	r2,r3,15
 10049c4:	01000104 	movi	r4,4
 10049c8:	11000426 	beq	r2,r4,10049dc <__muldf3+0x7a8>
 10049cc:	1805883a 	mov	r2,r3
 10049d0:	10c00104 	addi	r3,r2,4
 10049d4:	1885803a 	cmpltu	r2,r3,r2
 10049d8:	88a3883a 	add	r17,r17,r2
 10049dc:	8880202c 	andhi	r2,r17,128
 10049e0:	10001c26 	beq	r2,zero,1004a54 <__muldf3+0x820>
 10049e4:	3027883a 	mov	r19,r6
 10049e8:	00800044 	movi	r2,1
 10049ec:	0021883a 	mov	r16,zero
 10049f0:	002d883a 	mov	r22,zero
 10049f4:	003e6e06 	br	10043b0 <__muldf3+0x17c>
 10049f8:	4007883a 	mov	r3,r8
 10049fc:	003f9706 	br	100485c <__muldf3+0x628>
 1004a00:	017ff844 	movi	r5,-31
 1004a04:	2885c83a 	sub	r2,r5,r2
 1004a08:	888ad83a 	srl	r5,r17,r2
 1004a0c:	00800804 	movi	r2,32
 1004a10:	18801a26 	beq	r3,r2,1004a7c <__muldf3+0x848>
 1004a14:	01001004 	movi	r4,64
 1004a18:	20c7c83a 	sub	r3,r4,r3
 1004a1c:	88e2983a 	sll	r17,r17,r3
 1004a20:	8ca4b03a 	or	r18,r17,r18
 1004a24:	9004c03a 	cmpne	r2,r18,zero
 1004a28:	2884b03a 	or	r2,r5,r2
 1004a2c:	144001cc 	andi	r17,r2,7
 1004a30:	88000d1e 	bne	r17,zero,1004a68 <__muldf3+0x834>
 1004a34:	0021883a 	mov	r16,zero
 1004a38:	102cd0fa 	srli	r22,r2,3
 1004a3c:	3027883a 	mov	r19,r6
 1004a40:	0005883a 	mov	r2,zero
 1004a44:	b46cb03a 	or	r22,r22,r17
 1004a48:	003e5906 	br	10043b0 <__muldf3+0x17c>
 1004a4c:	1007883a 	mov	r3,r2
 1004a50:	0023883a 	mov	r17,zero
 1004a54:	8820927a 	slli	r16,r17,9
 1004a58:	1805883a 	mov	r2,r3
 1004a5c:	8822977a 	slli	r17,r17,29
 1004a60:	8020d33a 	srli	r16,r16,12
 1004a64:	003ff406 	br	1004a38 <__muldf3+0x804>
 1004a68:	10c003cc 	andi	r3,r2,15
 1004a6c:	01000104 	movi	r4,4
 1004a70:	193ff626 	beq	r3,r4,1004a4c <__muldf3+0x818>
 1004a74:	0023883a 	mov	r17,zero
 1004a78:	003fd506 	br	10049d0 <__muldf3+0x79c>
 1004a7c:	0023883a 	mov	r17,zero
 1004a80:	003fe706 	br	1004a20 <__muldf3+0x7ec>
 1004a84:	00800434 	movhi	r2,16
 1004a88:	8c000234 	orhi	r16,r17,8
 1004a8c:	10bfffc4 	addi	r2,r2,-1
 1004a90:	3027883a 	mov	r19,r6
 1004a94:	80a0703a 	and	r16,r16,r2
 1004a98:	902d883a 	mov	r22,r18
 1004a9c:	003eac06 	br	1004550 <__muldf3+0x31c>

01004aa0 <__subdf3>:
 1004aa0:	02000434 	movhi	r8,16
 1004aa4:	423fffc4 	addi	r8,r8,-1
 1004aa8:	defffb04 	addi	sp,sp,-20
 1004aac:	2a14703a 	and	r10,r5,r8
 1004ab0:	3812d53a 	srli	r9,r7,20
 1004ab4:	3a10703a 	and	r8,r7,r8
 1004ab8:	2006d77a 	srli	r3,r4,29
 1004abc:	3004d77a 	srli	r2,r6,29
 1004ac0:	dc000015 	stw	r16,0(sp)
 1004ac4:	501490fa 	slli	r10,r10,3
 1004ac8:	2820d53a 	srli	r16,r5,20
 1004acc:	401090fa 	slli	r8,r8,3
 1004ad0:	dc800215 	stw	r18,8(sp)
 1004ad4:	dc400115 	stw	r17,4(sp)
 1004ad8:	dfc00415 	stw	ra,16(sp)
 1004adc:	202290fa 	slli	r17,r4,3
 1004ae0:	dcc00315 	stw	r19,12(sp)
 1004ae4:	4a41ffcc 	andi	r9,r9,2047
 1004ae8:	0101ffc4 	movi	r4,2047
 1004aec:	2824d7fa 	srli	r18,r5,31
 1004af0:	8401ffcc 	andi	r16,r16,2047
 1004af4:	50c6b03a 	or	r3,r10,r3
 1004af8:	380ed7fa 	srli	r7,r7,31
 1004afc:	408ab03a 	or	r5,r8,r2
 1004b00:	300c90fa 	slli	r6,r6,3
 1004b04:	49009626 	beq	r9,r4,1004d60 <__subdf3+0x2c0>
 1004b08:	39c0005c 	xori	r7,r7,1
 1004b0c:	8245c83a 	sub	r2,r16,r9
 1004b10:	3c807426 	beq	r7,r18,1004ce4 <__subdf3+0x244>
 1004b14:	0080af0e 	bge	zero,r2,1004dd4 <__subdf3+0x334>
 1004b18:	48002a1e 	bne	r9,zero,1004bc4 <__subdf3+0x124>
 1004b1c:	2988b03a 	or	r4,r5,r6
 1004b20:	20009a1e 	bne	r4,zero,1004d8c <__subdf3+0x2ec>
 1004b24:	888001cc 	andi	r2,r17,7
 1004b28:	10000726 	beq	r2,zero,1004b48 <__subdf3+0xa8>
 1004b2c:	888003cc 	andi	r2,r17,15
 1004b30:	01000104 	movi	r4,4
 1004b34:	11000426 	beq	r2,r4,1004b48 <__subdf3+0xa8>
 1004b38:	890b883a 	add	r5,r17,r4
 1004b3c:	2c63803a 	cmpltu	r17,r5,r17
 1004b40:	1c47883a 	add	r3,r3,r17
 1004b44:	2823883a 	mov	r17,r5
 1004b48:	1880202c 	andhi	r2,r3,128
 1004b4c:	10005926 	beq	r2,zero,1004cb4 <__subdf3+0x214>
 1004b50:	84000044 	addi	r16,r16,1
 1004b54:	0081ffc4 	movi	r2,2047
 1004b58:	8080be26 	beq	r16,r2,1004e54 <__subdf3+0x3b4>
 1004b5c:	017fe034 	movhi	r5,65408
 1004b60:	297fffc4 	addi	r5,r5,-1
 1004b64:	1946703a 	and	r3,r3,r5
 1004b68:	1804977a 	slli	r2,r3,29
 1004b6c:	1806927a 	slli	r3,r3,9
 1004b70:	8822d0fa 	srli	r17,r17,3
 1004b74:	8401ffcc 	andi	r16,r16,2047
 1004b78:	180ad33a 	srli	r5,r3,12
 1004b7c:	9100004c 	andi	r4,r18,1
 1004b80:	1444b03a 	or	r2,r2,r17
 1004b84:	80c1ffcc 	andi	r3,r16,2047
 1004b88:	1820953a 	slli	r16,r3,20
 1004b8c:	20c03fcc 	andi	r3,r4,255
 1004b90:	180897fa 	slli	r4,r3,31
 1004b94:	00c00434 	movhi	r3,16
 1004b98:	18ffffc4 	addi	r3,r3,-1
 1004b9c:	28c6703a 	and	r3,r5,r3
 1004ba0:	1c06b03a 	or	r3,r3,r16
 1004ba4:	1906b03a 	or	r3,r3,r4
 1004ba8:	dfc00417 	ldw	ra,16(sp)
 1004bac:	dcc00317 	ldw	r19,12(sp)
 1004bb0:	dc800217 	ldw	r18,8(sp)
 1004bb4:	dc400117 	ldw	r17,4(sp)
 1004bb8:	dc000017 	ldw	r16,0(sp)
 1004bbc:	dec00504 	addi	sp,sp,20
 1004bc0:	f800283a 	ret
 1004bc4:	0101ffc4 	movi	r4,2047
 1004bc8:	813fd626 	beq	r16,r4,1004b24 <__subdf3+0x84>
 1004bcc:	29402034 	orhi	r5,r5,128
 1004bd0:	01000e04 	movi	r4,56
 1004bd4:	2080a316 	blt	r4,r2,1004e64 <__subdf3+0x3c4>
 1004bd8:	010007c4 	movi	r4,31
 1004bdc:	2080c616 	blt	r4,r2,1004ef8 <__subdf3+0x458>
 1004be0:	01000804 	movi	r4,32
 1004be4:	2089c83a 	sub	r4,r4,r2
 1004be8:	2910983a 	sll	r8,r5,r4
 1004bec:	308ed83a 	srl	r7,r6,r2
 1004bf0:	3108983a 	sll	r4,r6,r4
 1004bf4:	2884d83a 	srl	r2,r5,r2
 1004bf8:	41ccb03a 	or	r6,r8,r7
 1004bfc:	2008c03a 	cmpne	r4,r4,zero
 1004c00:	310cb03a 	or	r6,r6,r4
 1004c04:	898dc83a 	sub	r6,r17,r6
 1004c08:	89a3803a 	cmpltu	r17,r17,r6
 1004c0c:	1887c83a 	sub	r3,r3,r2
 1004c10:	1c47c83a 	sub	r3,r3,r17
 1004c14:	3023883a 	mov	r17,r6
 1004c18:	1880202c 	andhi	r2,r3,128
 1004c1c:	10002326 	beq	r2,zero,1004cac <__subdf3+0x20c>
 1004c20:	04c02034 	movhi	r19,128
 1004c24:	9cffffc4 	addi	r19,r19,-1
 1004c28:	1ce6703a 	and	r19,r3,r19
 1004c2c:	98007a26 	beq	r19,zero,1004e18 <__subdf3+0x378>
 1004c30:	9809883a 	mov	r4,r19
 1004c34:	10056a00 	call	10056a0 <__clzsi2>
 1004c38:	113ffe04 	addi	r4,r2,-8
 1004c3c:	00c007c4 	movi	r3,31
 1004c40:	19007b16 	blt	r3,r4,1004e30 <__subdf3+0x390>
 1004c44:	00800804 	movi	r2,32
 1004c48:	1105c83a 	sub	r2,r2,r4
 1004c4c:	8884d83a 	srl	r2,r17,r2
 1004c50:	9906983a 	sll	r3,r19,r4
 1004c54:	8922983a 	sll	r17,r17,r4
 1004c58:	10c4b03a 	or	r2,r2,r3
 1004c5c:	24007816 	blt	r4,r16,1004e40 <__subdf3+0x3a0>
 1004c60:	2421c83a 	sub	r16,r4,r16
 1004c64:	80c00044 	addi	r3,r16,1
 1004c68:	010007c4 	movi	r4,31
 1004c6c:	20c09516 	blt	r4,r3,1004ec4 <__subdf3+0x424>
 1004c70:	01400804 	movi	r5,32
 1004c74:	28cbc83a 	sub	r5,r5,r3
 1004c78:	88c8d83a 	srl	r4,r17,r3
 1004c7c:	8962983a 	sll	r17,r17,r5
 1004c80:	114a983a 	sll	r5,r2,r5
 1004c84:	10c6d83a 	srl	r3,r2,r3
 1004c88:	8804c03a 	cmpne	r2,r17,zero
 1004c8c:	290ab03a 	or	r5,r5,r4
 1004c90:	28a2b03a 	or	r17,r5,r2
 1004c94:	0021883a 	mov	r16,zero
 1004c98:	003fa206 	br	1004b24 <__subdf3+0x84>
 1004c9c:	2090b03a 	or	r8,r4,r2
 1004ca0:	40018e26 	beq	r8,zero,10052dc <__subdf3+0x83c>
 1004ca4:	1007883a 	mov	r3,r2
 1004ca8:	2023883a 	mov	r17,r4
 1004cac:	888001cc 	andi	r2,r17,7
 1004cb0:	103f9e1e 	bne	r2,zero,1004b2c <__subdf3+0x8c>
 1004cb4:	1804977a 	slli	r2,r3,29
 1004cb8:	8822d0fa 	srli	r17,r17,3
 1004cbc:	1810d0fa 	srli	r8,r3,3
 1004cc0:	9100004c 	andi	r4,r18,1
 1004cc4:	1444b03a 	or	r2,r2,r17
 1004cc8:	00c1ffc4 	movi	r3,2047
 1004ccc:	80c02826 	beq	r16,r3,1004d70 <__subdf3+0x2d0>
 1004cd0:	01400434 	movhi	r5,16
 1004cd4:	297fffc4 	addi	r5,r5,-1
 1004cd8:	80e0703a 	and	r16,r16,r3
 1004cdc:	414a703a 	and	r5,r8,r5
 1004ce0:	003fa806 	br	1004b84 <__subdf3+0xe4>
 1004ce4:	0080630e 	bge	zero,r2,1004e74 <__subdf3+0x3d4>
 1004ce8:	48003026 	beq	r9,zero,1004dac <__subdf3+0x30c>
 1004cec:	0101ffc4 	movi	r4,2047
 1004cf0:	813f8c26 	beq	r16,r4,1004b24 <__subdf3+0x84>
 1004cf4:	29402034 	orhi	r5,r5,128
 1004cf8:	01000e04 	movi	r4,56
 1004cfc:	2080a90e 	bge	r4,r2,1004fa4 <__subdf3+0x504>
 1004d00:	298cb03a 	or	r6,r5,r6
 1004d04:	3012c03a 	cmpne	r9,r6,zero
 1004d08:	0005883a 	mov	r2,zero
 1004d0c:	4c53883a 	add	r9,r9,r17
 1004d10:	4c63803a 	cmpltu	r17,r9,r17
 1004d14:	10c7883a 	add	r3,r2,r3
 1004d18:	88c7883a 	add	r3,r17,r3
 1004d1c:	4823883a 	mov	r17,r9
 1004d20:	1880202c 	andhi	r2,r3,128
 1004d24:	1000d026 	beq	r2,zero,1005068 <__subdf3+0x5c8>
 1004d28:	84000044 	addi	r16,r16,1
 1004d2c:	0081ffc4 	movi	r2,2047
 1004d30:	8080fe26 	beq	r16,r2,100512c <__subdf3+0x68c>
 1004d34:	00bfe034 	movhi	r2,65408
 1004d38:	10bfffc4 	addi	r2,r2,-1
 1004d3c:	1886703a 	and	r3,r3,r2
 1004d40:	880ad07a 	srli	r5,r17,1
 1004d44:	180497fa 	slli	r2,r3,31
 1004d48:	8900004c 	andi	r4,r17,1
 1004d4c:	2922b03a 	or	r17,r5,r4
 1004d50:	1806d07a 	srli	r3,r3,1
 1004d54:	1462b03a 	or	r17,r2,r17
 1004d58:	3825883a 	mov	r18,r7
 1004d5c:	003f7106 	br	1004b24 <__subdf3+0x84>
 1004d60:	2984b03a 	or	r2,r5,r6
 1004d64:	103f6826 	beq	r2,zero,1004b08 <__subdf3+0x68>
 1004d68:	39c03fcc 	andi	r7,r7,255
 1004d6c:	003f6706 	br	1004b0c <__subdf3+0x6c>
 1004d70:	4086b03a 	or	r3,r8,r2
 1004d74:	18015226 	beq	r3,zero,10052c0 <__subdf3+0x820>
 1004d78:	00c00434 	movhi	r3,16
 1004d7c:	41400234 	orhi	r5,r8,8
 1004d80:	18ffffc4 	addi	r3,r3,-1
 1004d84:	28ca703a 	and	r5,r5,r3
 1004d88:	003f7e06 	br	1004b84 <__subdf3+0xe4>
 1004d8c:	10bfffc4 	addi	r2,r2,-1
 1004d90:	1000491e 	bne	r2,zero,1004eb8 <__subdf3+0x418>
 1004d94:	898fc83a 	sub	r7,r17,r6
 1004d98:	89e3803a 	cmpltu	r17,r17,r7
 1004d9c:	1947c83a 	sub	r3,r3,r5
 1004da0:	1c47c83a 	sub	r3,r3,r17
 1004da4:	3823883a 	mov	r17,r7
 1004da8:	003f9b06 	br	1004c18 <__subdf3+0x178>
 1004dac:	2988b03a 	or	r4,r5,r6
 1004db0:	203f5c26 	beq	r4,zero,1004b24 <__subdf3+0x84>
 1004db4:	10bfffc4 	addi	r2,r2,-1
 1004db8:	1000931e 	bne	r2,zero,1005008 <__subdf3+0x568>
 1004dbc:	898d883a 	add	r6,r17,r6
 1004dc0:	3463803a 	cmpltu	r17,r6,r17
 1004dc4:	1947883a 	add	r3,r3,r5
 1004dc8:	88c7883a 	add	r3,r17,r3
 1004dcc:	3023883a 	mov	r17,r6
 1004dd0:	003fd306 	br	1004d20 <__subdf3+0x280>
 1004dd4:	1000541e 	bne	r2,zero,1004f28 <__subdf3+0x488>
 1004dd8:	80800044 	addi	r2,r16,1
 1004ddc:	1081ffcc 	andi	r2,r2,2047
 1004de0:	01000044 	movi	r4,1
 1004de4:	2080a20e 	bge	r4,r2,1005070 <__subdf3+0x5d0>
 1004de8:	8989c83a 	sub	r4,r17,r6
 1004dec:	8905803a 	cmpltu	r2,r17,r4
 1004df0:	1967c83a 	sub	r19,r3,r5
 1004df4:	98a7c83a 	sub	r19,r19,r2
 1004df8:	9880202c 	andhi	r2,r19,128
 1004dfc:	10006326 	beq	r2,zero,1004f8c <__subdf3+0x4ec>
 1004e00:	3463c83a 	sub	r17,r6,r17
 1004e04:	28c7c83a 	sub	r3,r5,r3
 1004e08:	344d803a 	cmpltu	r6,r6,r17
 1004e0c:	19a7c83a 	sub	r19,r3,r6
 1004e10:	3825883a 	mov	r18,r7
 1004e14:	983f861e 	bne	r19,zero,1004c30 <__subdf3+0x190>
 1004e18:	8809883a 	mov	r4,r17
 1004e1c:	10056a00 	call	10056a0 <__clzsi2>
 1004e20:	10800804 	addi	r2,r2,32
 1004e24:	113ffe04 	addi	r4,r2,-8
 1004e28:	00c007c4 	movi	r3,31
 1004e2c:	193f850e 	bge	r3,r4,1004c44 <__subdf3+0x1a4>
 1004e30:	10bff604 	addi	r2,r2,-40
 1004e34:	8884983a 	sll	r2,r17,r2
 1004e38:	0023883a 	mov	r17,zero
 1004e3c:	243f880e 	bge	r4,r16,1004c60 <__subdf3+0x1c0>
 1004e40:	00ffe034 	movhi	r3,65408
 1004e44:	18ffffc4 	addi	r3,r3,-1
 1004e48:	8121c83a 	sub	r16,r16,r4
 1004e4c:	10c6703a 	and	r3,r2,r3
 1004e50:	003f3406 	br	1004b24 <__subdf3+0x84>
 1004e54:	9100004c 	andi	r4,r18,1
 1004e58:	000b883a 	mov	r5,zero
 1004e5c:	0005883a 	mov	r2,zero
 1004e60:	003f4806 	br	1004b84 <__subdf3+0xe4>
 1004e64:	298cb03a 	or	r6,r5,r6
 1004e68:	300cc03a 	cmpne	r6,r6,zero
 1004e6c:	0005883a 	mov	r2,zero
 1004e70:	003f6406 	br	1004c04 <__subdf3+0x164>
 1004e74:	10009a1e 	bne	r2,zero,10050e0 <__subdf3+0x640>
 1004e78:	82400044 	addi	r9,r16,1
 1004e7c:	4881ffcc 	andi	r2,r9,2047
 1004e80:	02800044 	movi	r10,1
 1004e84:	5080670e 	bge	r10,r2,1005024 <__subdf3+0x584>
 1004e88:	0081ffc4 	movi	r2,2047
 1004e8c:	4880af26 	beq	r9,r2,100514c <__subdf3+0x6ac>
 1004e90:	898d883a 	add	r6,r17,r6
 1004e94:	1945883a 	add	r2,r3,r5
 1004e98:	3447803a 	cmpltu	r3,r6,r17
 1004e9c:	1887883a 	add	r3,r3,r2
 1004ea0:	182297fa 	slli	r17,r3,31
 1004ea4:	300cd07a 	srli	r6,r6,1
 1004ea8:	1806d07a 	srli	r3,r3,1
 1004eac:	4821883a 	mov	r16,r9
 1004eb0:	89a2b03a 	or	r17,r17,r6
 1004eb4:	003f1b06 	br	1004b24 <__subdf3+0x84>
 1004eb8:	0101ffc4 	movi	r4,2047
 1004ebc:	813f441e 	bne	r16,r4,1004bd0 <__subdf3+0x130>
 1004ec0:	003f1806 	br	1004b24 <__subdf3+0x84>
 1004ec4:	843ff844 	addi	r16,r16,-31
 1004ec8:	01400804 	movi	r5,32
 1004ecc:	1408d83a 	srl	r4,r2,r16
 1004ed0:	19405026 	beq	r3,r5,1005014 <__subdf3+0x574>
 1004ed4:	01401004 	movi	r5,64
 1004ed8:	28c7c83a 	sub	r3,r5,r3
 1004edc:	10c4983a 	sll	r2,r2,r3
 1004ee0:	88a2b03a 	or	r17,r17,r2
 1004ee4:	8822c03a 	cmpne	r17,r17,zero
 1004ee8:	2462b03a 	or	r17,r4,r17
 1004eec:	0007883a 	mov	r3,zero
 1004ef0:	0021883a 	mov	r16,zero
 1004ef4:	003f6d06 	br	1004cac <__subdf3+0x20c>
 1004ef8:	11fff804 	addi	r7,r2,-32
 1004efc:	01000804 	movi	r4,32
 1004f00:	29ced83a 	srl	r7,r5,r7
 1004f04:	11004526 	beq	r2,r4,100501c <__subdf3+0x57c>
 1004f08:	01001004 	movi	r4,64
 1004f0c:	2089c83a 	sub	r4,r4,r2
 1004f10:	2904983a 	sll	r2,r5,r4
 1004f14:	118cb03a 	or	r6,r2,r6
 1004f18:	300cc03a 	cmpne	r6,r6,zero
 1004f1c:	398cb03a 	or	r6,r7,r6
 1004f20:	0005883a 	mov	r2,zero
 1004f24:	003f3706 	br	1004c04 <__subdf3+0x164>
 1004f28:	80002a26 	beq	r16,zero,1004fd4 <__subdf3+0x534>
 1004f2c:	0101ffc4 	movi	r4,2047
 1004f30:	49006626 	beq	r9,r4,10050cc <__subdf3+0x62c>
 1004f34:	0085c83a 	sub	r2,zero,r2
 1004f38:	18c02034 	orhi	r3,r3,128
 1004f3c:	01000e04 	movi	r4,56
 1004f40:	20807e16 	blt	r4,r2,100513c <__subdf3+0x69c>
 1004f44:	010007c4 	movi	r4,31
 1004f48:	2080e716 	blt	r4,r2,10052e8 <__subdf3+0x848>
 1004f4c:	01000804 	movi	r4,32
 1004f50:	2089c83a 	sub	r4,r4,r2
 1004f54:	1914983a 	sll	r10,r3,r4
 1004f58:	8890d83a 	srl	r8,r17,r2
 1004f5c:	8908983a 	sll	r4,r17,r4
 1004f60:	1884d83a 	srl	r2,r3,r2
 1004f64:	5222b03a 	or	r17,r10,r8
 1004f68:	2006c03a 	cmpne	r3,r4,zero
 1004f6c:	88e2b03a 	or	r17,r17,r3
 1004f70:	3463c83a 	sub	r17,r6,r17
 1004f74:	2885c83a 	sub	r2,r5,r2
 1004f78:	344d803a 	cmpltu	r6,r6,r17
 1004f7c:	1187c83a 	sub	r3,r2,r6
 1004f80:	4821883a 	mov	r16,r9
 1004f84:	3825883a 	mov	r18,r7
 1004f88:	003f2306 	br	1004c18 <__subdf3+0x178>
 1004f8c:	24d0b03a 	or	r8,r4,r19
 1004f90:	40001b1e 	bne	r8,zero,1005000 <__subdf3+0x560>
 1004f94:	0005883a 	mov	r2,zero
 1004f98:	0009883a 	mov	r4,zero
 1004f9c:	0021883a 	mov	r16,zero
 1004fa0:	003f4906 	br	1004cc8 <__subdf3+0x228>
 1004fa4:	010007c4 	movi	r4,31
 1004fa8:	20803a16 	blt	r4,r2,1005094 <__subdf3+0x5f4>
 1004fac:	01000804 	movi	r4,32
 1004fb0:	2089c83a 	sub	r4,r4,r2
 1004fb4:	2912983a 	sll	r9,r5,r4
 1004fb8:	3090d83a 	srl	r8,r6,r2
 1004fbc:	3108983a 	sll	r4,r6,r4
 1004fc0:	2884d83a 	srl	r2,r5,r2
 1004fc4:	4a12b03a 	or	r9,r9,r8
 1004fc8:	2008c03a 	cmpne	r4,r4,zero
 1004fcc:	4912b03a 	or	r9,r9,r4
 1004fd0:	003f4e06 	br	1004d0c <__subdf3+0x26c>
 1004fd4:	1c48b03a 	or	r4,r3,r17
 1004fd8:	20003c26 	beq	r4,zero,10050cc <__subdf3+0x62c>
 1004fdc:	0084303a 	nor	r2,zero,r2
 1004fe0:	1000381e 	bne	r2,zero,10050c4 <__subdf3+0x624>
 1004fe4:	3463c83a 	sub	r17,r6,r17
 1004fe8:	28c5c83a 	sub	r2,r5,r3
 1004fec:	344d803a 	cmpltu	r6,r6,r17
 1004ff0:	1187c83a 	sub	r3,r2,r6
 1004ff4:	4821883a 	mov	r16,r9
 1004ff8:	3825883a 	mov	r18,r7
 1004ffc:	003f0606 	br	1004c18 <__subdf3+0x178>
 1005000:	2023883a 	mov	r17,r4
 1005004:	003f0906 	br	1004c2c <__subdf3+0x18c>
 1005008:	0101ffc4 	movi	r4,2047
 100500c:	813f3a1e 	bne	r16,r4,1004cf8 <__subdf3+0x258>
 1005010:	003ec406 	br	1004b24 <__subdf3+0x84>
 1005014:	0005883a 	mov	r2,zero
 1005018:	003fb106 	br	1004ee0 <__subdf3+0x440>
 100501c:	0005883a 	mov	r2,zero
 1005020:	003fbc06 	br	1004f14 <__subdf3+0x474>
 1005024:	1c44b03a 	or	r2,r3,r17
 1005028:	80008e1e 	bne	r16,zero,1005264 <__subdf3+0x7c4>
 100502c:	1000c826 	beq	r2,zero,1005350 <__subdf3+0x8b0>
 1005030:	2984b03a 	or	r2,r5,r6
 1005034:	103ebb26 	beq	r2,zero,1004b24 <__subdf3+0x84>
 1005038:	8989883a 	add	r4,r17,r6
 100503c:	1945883a 	add	r2,r3,r5
 1005040:	2447803a 	cmpltu	r3,r4,r17
 1005044:	1887883a 	add	r3,r3,r2
 1005048:	1880202c 	andhi	r2,r3,128
 100504c:	2023883a 	mov	r17,r4
 1005050:	103f1626 	beq	r2,zero,1004cac <__subdf3+0x20c>
 1005054:	00bfe034 	movhi	r2,65408
 1005058:	10bfffc4 	addi	r2,r2,-1
 100505c:	5021883a 	mov	r16,r10
 1005060:	1886703a 	and	r3,r3,r2
 1005064:	003eaf06 	br	1004b24 <__subdf3+0x84>
 1005068:	3825883a 	mov	r18,r7
 100506c:	003f0f06 	br	1004cac <__subdf3+0x20c>
 1005070:	1c44b03a 	or	r2,r3,r17
 1005074:	8000251e 	bne	r16,zero,100510c <__subdf3+0x66c>
 1005078:	1000661e 	bne	r2,zero,1005214 <__subdf3+0x774>
 100507c:	2990b03a 	or	r8,r5,r6
 1005080:	40009626 	beq	r8,zero,10052dc <__subdf3+0x83c>
 1005084:	2807883a 	mov	r3,r5
 1005088:	3023883a 	mov	r17,r6
 100508c:	3825883a 	mov	r18,r7
 1005090:	003ea406 	br	1004b24 <__subdf3+0x84>
 1005094:	127ff804 	addi	r9,r2,-32
 1005098:	01000804 	movi	r4,32
 100509c:	2a52d83a 	srl	r9,r5,r9
 10050a0:	11008c26 	beq	r2,r4,10052d4 <__subdf3+0x834>
 10050a4:	01001004 	movi	r4,64
 10050a8:	2085c83a 	sub	r2,r4,r2
 10050ac:	2884983a 	sll	r2,r5,r2
 10050b0:	118cb03a 	or	r6,r2,r6
 10050b4:	300cc03a 	cmpne	r6,r6,zero
 10050b8:	4992b03a 	or	r9,r9,r6
 10050bc:	0005883a 	mov	r2,zero
 10050c0:	003f1206 	br	1004d0c <__subdf3+0x26c>
 10050c4:	0101ffc4 	movi	r4,2047
 10050c8:	493f9c1e 	bne	r9,r4,1004f3c <__subdf3+0x49c>
 10050cc:	2807883a 	mov	r3,r5
 10050d0:	3023883a 	mov	r17,r6
 10050d4:	4821883a 	mov	r16,r9
 10050d8:	3825883a 	mov	r18,r7
 10050dc:	003e9106 	br	1004b24 <__subdf3+0x84>
 10050e0:	80001f1e 	bne	r16,zero,1005160 <__subdf3+0x6c0>
 10050e4:	1c48b03a 	or	r4,r3,r17
 10050e8:	20005a26 	beq	r4,zero,1005254 <__subdf3+0x7b4>
 10050ec:	0084303a 	nor	r2,zero,r2
 10050f0:	1000561e 	bne	r2,zero,100524c <__subdf3+0x7ac>
 10050f4:	89a3883a 	add	r17,r17,r6
 10050f8:	1945883a 	add	r2,r3,r5
 10050fc:	898d803a 	cmpltu	r6,r17,r6
 1005100:	3087883a 	add	r3,r6,r2
 1005104:	4821883a 	mov	r16,r9
 1005108:	003f0506 	br	1004d20 <__subdf3+0x280>
 100510c:	10002b1e 	bne	r2,zero,10051bc <__subdf3+0x71c>
 1005110:	2984b03a 	or	r2,r5,r6
 1005114:	10008026 	beq	r2,zero,1005318 <__subdf3+0x878>
 1005118:	2807883a 	mov	r3,r5
 100511c:	3023883a 	mov	r17,r6
 1005120:	3825883a 	mov	r18,r7
 1005124:	0401ffc4 	movi	r16,2047
 1005128:	003e7e06 	br	1004b24 <__subdf3+0x84>
 100512c:	3809883a 	mov	r4,r7
 1005130:	0011883a 	mov	r8,zero
 1005134:	0005883a 	mov	r2,zero
 1005138:	003ee306 	br	1004cc8 <__subdf3+0x228>
 100513c:	1c62b03a 	or	r17,r3,r17
 1005140:	8822c03a 	cmpne	r17,r17,zero
 1005144:	0005883a 	mov	r2,zero
 1005148:	003f8906 	br	1004f70 <__subdf3+0x4d0>
 100514c:	3809883a 	mov	r4,r7
 1005150:	4821883a 	mov	r16,r9
 1005154:	0011883a 	mov	r8,zero
 1005158:	0005883a 	mov	r2,zero
 100515c:	003eda06 	br	1004cc8 <__subdf3+0x228>
 1005160:	0101ffc4 	movi	r4,2047
 1005164:	49003b26 	beq	r9,r4,1005254 <__subdf3+0x7b4>
 1005168:	0085c83a 	sub	r2,zero,r2
 100516c:	18c02034 	orhi	r3,r3,128
 1005170:	01000e04 	movi	r4,56
 1005174:	20806e16 	blt	r4,r2,1005330 <__subdf3+0x890>
 1005178:	010007c4 	movi	r4,31
 100517c:	20807716 	blt	r4,r2,100535c <__subdf3+0x8bc>
 1005180:	01000804 	movi	r4,32
 1005184:	2089c83a 	sub	r4,r4,r2
 1005188:	1914983a 	sll	r10,r3,r4
 100518c:	8890d83a 	srl	r8,r17,r2
 1005190:	8908983a 	sll	r4,r17,r4
 1005194:	1884d83a 	srl	r2,r3,r2
 1005198:	5222b03a 	or	r17,r10,r8
 100519c:	2006c03a 	cmpne	r3,r4,zero
 10051a0:	88e2b03a 	or	r17,r17,r3
 10051a4:	89a3883a 	add	r17,r17,r6
 10051a8:	1145883a 	add	r2,r2,r5
 10051ac:	898d803a 	cmpltu	r6,r17,r6
 10051b0:	3087883a 	add	r3,r6,r2
 10051b4:	4821883a 	mov	r16,r9
 10051b8:	003ed906 	br	1004d20 <__subdf3+0x280>
 10051bc:	2984b03a 	or	r2,r5,r6
 10051c0:	10004226 	beq	r2,zero,10052cc <__subdf3+0x82c>
 10051c4:	1808d0fa 	srli	r4,r3,3
 10051c8:	8822d0fa 	srli	r17,r17,3
 10051cc:	1806977a 	slli	r3,r3,29
 10051d0:	2080022c 	andhi	r2,r4,8
 10051d4:	1c62b03a 	or	r17,r3,r17
 10051d8:	10000826 	beq	r2,zero,10051fc <__subdf3+0x75c>
 10051dc:	2812d0fa 	srli	r9,r5,3
 10051e0:	4880022c 	andhi	r2,r9,8
 10051e4:	1000051e 	bne	r2,zero,10051fc <__subdf3+0x75c>
 10051e8:	300cd0fa 	srli	r6,r6,3
 10051ec:	2804977a 	slli	r2,r5,29
 10051f0:	4809883a 	mov	r4,r9
 10051f4:	3825883a 	mov	r18,r7
 10051f8:	11a2b03a 	or	r17,r2,r6
 10051fc:	8806d77a 	srli	r3,r17,29
 1005200:	200890fa 	slli	r4,r4,3
 1005204:	882290fa 	slli	r17,r17,3
 1005208:	0401ffc4 	movi	r16,2047
 100520c:	1906b03a 	or	r3,r3,r4
 1005210:	003e4406 	br	1004b24 <__subdf3+0x84>
 1005214:	2984b03a 	or	r2,r5,r6
 1005218:	103e4226 	beq	r2,zero,1004b24 <__subdf3+0x84>
 100521c:	8989c83a 	sub	r4,r17,r6
 1005220:	8911803a 	cmpltu	r8,r17,r4
 1005224:	1945c83a 	sub	r2,r3,r5
 1005228:	1205c83a 	sub	r2,r2,r8
 100522c:	1200202c 	andhi	r8,r2,128
 1005230:	403e9a26 	beq	r8,zero,1004c9c <__subdf3+0x1fc>
 1005234:	3463c83a 	sub	r17,r6,r17
 1005238:	28c5c83a 	sub	r2,r5,r3
 100523c:	344d803a 	cmpltu	r6,r6,r17
 1005240:	1187c83a 	sub	r3,r2,r6
 1005244:	3825883a 	mov	r18,r7
 1005248:	003e3606 	br	1004b24 <__subdf3+0x84>
 100524c:	0101ffc4 	movi	r4,2047
 1005250:	493fc71e 	bne	r9,r4,1005170 <__subdf3+0x6d0>
 1005254:	2807883a 	mov	r3,r5
 1005258:	3023883a 	mov	r17,r6
 100525c:	4821883a 	mov	r16,r9
 1005260:	003e3006 	br	1004b24 <__subdf3+0x84>
 1005264:	10003626 	beq	r2,zero,1005340 <__subdf3+0x8a0>
 1005268:	2984b03a 	or	r2,r5,r6
 100526c:	10001726 	beq	r2,zero,10052cc <__subdf3+0x82c>
 1005270:	1808d0fa 	srli	r4,r3,3
 1005274:	8822d0fa 	srli	r17,r17,3
 1005278:	1806977a 	slli	r3,r3,29
 100527c:	2080022c 	andhi	r2,r4,8
 1005280:	1c62b03a 	or	r17,r3,r17
 1005284:	10000726 	beq	r2,zero,10052a4 <__subdf3+0x804>
 1005288:	2812d0fa 	srli	r9,r5,3
 100528c:	4880022c 	andhi	r2,r9,8
 1005290:	1000041e 	bne	r2,zero,10052a4 <__subdf3+0x804>
 1005294:	300cd0fa 	srli	r6,r6,3
 1005298:	2804977a 	slli	r2,r5,29
 100529c:	4809883a 	mov	r4,r9
 10052a0:	11a2b03a 	or	r17,r2,r6
 10052a4:	8806d77a 	srli	r3,r17,29
 10052a8:	200890fa 	slli	r4,r4,3
 10052ac:	882290fa 	slli	r17,r17,3
 10052b0:	3825883a 	mov	r18,r7
 10052b4:	1906b03a 	or	r3,r3,r4
 10052b8:	0401ffc4 	movi	r16,2047
 10052bc:	003e1906 	br	1004b24 <__subdf3+0x84>
 10052c0:	000b883a 	mov	r5,zero
 10052c4:	0005883a 	mov	r2,zero
 10052c8:	003e2e06 	br	1004b84 <__subdf3+0xe4>
 10052cc:	0401ffc4 	movi	r16,2047
 10052d0:	003e1406 	br	1004b24 <__subdf3+0x84>
 10052d4:	0005883a 	mov	r2,zero
 10052d8:	003f7506 	br	10050b0 <__subdf3+0x610>
 10052dc:	0005883a 	mov	r2,zero
 10052e0:	0009883a 	mov	r4,zero
 10052e4:	003e7806 	br	1004cc8 <__subdf3+0x228>
 10052e8:	123ff804 	addi	r8,r2,-32
 10052ec:	01000804 	movi	r4,32
 10052f0:	1a10d83a 	srl	r8,r3,r8
 10052f4:	11002526 	beq	r2,r4,100538c <__subdf3+0x8ec>
 10052f8:	01001004 	movi	r4,64
 10052fc:	2085c83a 	sub	r2,r4,r2
 1005300:	1884983a 	sll	r2,r3,r2
 1005304:	1444b03a 	or	r2,r2,r17
 1005308:	1004c03a 	cmpne	r2,r2,zero
 100530c:	40a2b03a 	or	r17,r8,r2
 1005310:	0005883a 	mov	r2,zero
 1005314:	003f1606 	br	1004f70 <__subdf3+0x4d0>
 1005318:	02000434 	movhi	r8,16
 100531c:	0009883a 	mov	r4,zero
 1005320:	423fffc4 	addi	r8,r8,-1
 1005324:	00bfffc4 	movi	r2,-1
 1005328:	0401ffc4 	movi	r16,2047
 100532c:	003e6606 	br	1004cc8 <__subdf3+0x228>
 1005330:	1c62b03a 	or	r17,r3,r17
 1005334:	8822c03a 	cmpne	r17,r17,zero
 1005338:	0005883a 	mov	r2,zero
 100533c:	003f9906 	br	10051a4 <__subdf3+0x704>
 1005340:	2807883a 	mov	r3,r5
 1005344:	3023883a 	mov	r17,r6
 1005348:	0401ffc4 	movi	r16,2047
 100534c:	003df506 	br	1004b24 <__subdf3+0x84>
 1005350:	2807883a 	mov	r3,r5
 1005354:	3023883a 	mov	r17,r6
 1005358:	003df206 	br	1004b24 <__subdf3+0x84>
 100535c:	123ff804 	addi	r8,r2,-32
 1005360:	01000804 	movi	r4,32
 1005364:	1a10d83a 	srl	r8,r3,r8
 1005368:	11000a26 	beq	r2,r4,1005394 <__subdf3+0x8f4>
 100536c:	01001004 	movi	r4,64
 1005370:	2085c83a 	sub	r2,r4,r2
 1005374:	1884983a 	sll	r2,r3,r2
 1005378:	1444b03a 	or	r2,r2,r17
 100537c:	1004c03a 	cmpne	r2,r2,zero
 1005380:	40a2b03a 	or	r17,r8,r2
 1005384:	0005883a 	mov	r2,zero
 1005388:	003f8606 	br	10051a4 <__subdf3+0x704>
 100538c:	0005883a 	mov	r2,zero
 1005390:	003fdc06 	br	1005304 <__subdf3+0x864>
 1005394:	0005883a 	mov	r2,zero
 1005398:	003ff706 	br	1005378 <__subdf3+0x8d8>

0100539c <__fixdfsi>:
 100539c:	280cd53a 	srli	r6,r5,20
 10053a0:	00c00434 	movhi	r3,16
 10053a4:	18ffffc4 	addi	r3,r3,-1
 10053a8:	3181ffcc 	andi	r6,r6,2047
 10053ac:	01c0ff84 	movi	r7,1022
 10053b0:	28c6703a 	and	r3,r5,r3
 10053b4:	280ad7fa 	srli	r5,r5,31
 10053b8:	3980120e 	bge	r7,r6,1005404 <__fixdfsi+0x68>
 10053bc:	00810744 	movi	r2,1053
 10053c0:	11800c16 	blt	r2,r6,10053f4 <__fixdfsi+0x58>
 10053c4:	00810cc4 	movi	r2,1075
 10053c8:	1185c83a 	sub	r2,r2,r6
 10053cc:	01c007c4 	movi	r7,31
 10053d0:	18c00434 	orhi	r3,r3,16
 10053d4:	38800d16 	blt	r7,r2,100540c <__fixdfsi+0x70>
 10053d8:	31befb44 	addi	r6,r6,-1043
 10053dc:	2084d83a 	srl	r2,r4,r2
 10053e0:	1986983a 	sll	r3,r3,r6
 10053e4:	1884b03a 	or	r2,r3,r2
 10053e8:	28000726 	beq	r5,zero,1005408 <__fixdfsi+0x6c>
 10053ec:	0085c83a 	sub	r2,zero,r2
 10053f0:	f800283a 	ret
 10053f4:	00a00034 	movhi	r2,32768
 10053f8:	10bfffc4 	addi	r2,r2,-1
 10053fc:	2885883a 	add	r2,r5,r2
 1005400:	f800283a 	ret
 1005404:	0005883a 	mov	r2,zero
 1005408:	f800283a 	ret
 100540c:	008104c4 	movi	r2,1043
 1005410:	1185c83a 	sub	r2,r2,r6
 1005414:	1884d83a 	srl	r2,r3,r2
 1005418:	003ff306 	br	10053e8 <__fixdfsi+0x4c>

0100541c <__floatsidf>:
 100541c:	defffd04 	addi	sp,sp,-12
 1005420:	dfc00215 	stw	ra,8(sp)
 1005424:	dc400115 	stw	r17,4(sp)
 1005428:	dc000015 	stw	r16,0(sp)
 100542c:	20002b26 	beq	r4,zero,10054dc <__floatsidf+0xc0>
 1005430:	2023883a 	mov	r17,r4
 1005434:	2020d7fa 	srli	r16,r4,31
 1005438:	20002d16 	blt	r4,zero,10054f0 <__floatsidf+0xd4>
 100543c:	8809883a 	mov	r4,r17
 1005440:	10056a00 	call	10056a0 <__clzsi2>
 1005444:	01410784 	movi	r5,1054
 1005448:	288bc83a 	sub	r5,r5,r2
 100544c:	01010cc4 	movi	r4,1075
 1005450:	2149c83a 	sub	r4,r4,r5
 1005454:	00c007c4 	movi	r3,31
 1005458:	1900160e 	bge	r3,r4,10054b4 <__floatsidf+0x98>
 100545c:	00c104c4 	movi	r3,1043
 1005460:	1947c83a 	sub	r3,r3,r5
 1005464:	88c6983a 	sll	r3,r17,r3
 1005468:	00800434 	movhi	r2,16
 100546c:	10bfffc4 	addi	r2,r2,-1
 1005470:	1886703a 	and	r3,r3,r2
 1005474:	2941ffcc 	andi	r5,r5,2047
 1005478:	800d883a 	mov	r6,r16
 100547c:	0005883a 	mov	r2,zero
 1005480:	280a953a 	slli	r5,r5,20
 1005484:	31803fcc 	andi	r6,r6,255
 1005488:	01000434 	movhi	r4,16
 100548c:	300c97fa 	slli	r6,r6,31
 1005490:	213fffc4 	addi	r4,r4,-1
 1005494:	1906703a 	and	r3,r3,r4
 1005498:	1946b03a 	or	r3,r3,r5
 100549c:	1986b03a 	or	r3,r3,r6
 10054a0:	dfc00217 	ldw	ra,8(sp)
 10054a4:	dc400117 	ldw	r17,4(sp)
 10054a8:	dc000017 	ldw	r16,0(sp)
 10054ac:	dec00304 	addi	sp,sp,12
 10054b0:	f800283a 	ret
 10054b4:	00c002c4 	movi	r3,11
 10054b8:	1887c83a 	sub	r3,r3,r2
 10054bc:	88c6d83a 	srl	r3,r17,r3
 10054c0:	8904983a 	sll	r2,r17,r4
 10054c4:	01000434 	movhi	r4,16
 10054c8:	213fffc4 	addi	r4,r4,-1
 10054cc:	2941ffcc 	andi	r5,r5,2047
 10054d0:	1906703a 	and	r3,r3,r4
 10054d4:	800d883a 	mov	r6,r16
 10054d8:	003fe906 	br	1005480 <__floatsidf+0x64>
 10054dc:	000d883a 	mov	r6,zero
 10054e0:	000b883a 	mov	r5,zero
 10054e4:	0007883a 	mov	r3,zero
 10054e8:	0005883a 	mov	r2,zero
 10054ec:	003fe406 	br	1005480 <__floatsidf+0x64>
 10054f0:	0123c83a 	sub	r17,zero,r4
 10054f4:	003fd106 	br	100543c <__floatsidf+0x20>

010054f8 <__truncdfsf2>:
 10054f8:	2810d53a 	srli	r8,r5,20
 10054fc:	01c00434 	movhi	r7,16
 1005500:	39ffffc4 	addi	r7,r7,-1
 1005504:	29ce703a 	and	r7,r5,r7
 1005508:	4201ffcc 	andi	r8,r8,2047
 100550c:	380e90fa 	slli	r7,r7,3
 1005510:	200cd77a 	srli	r6,r4,29
 1005514:	42400044 	addi	r9,r8,1
 1005518:	4a41ffcc 	andi	r9,r9,2047
 100551c:	00c00044 	movi	r3,1
 1005520:	280ad7fa 	srli	r5,r5,31
 1005524:	31ceb03a 	or	r7,r6,r7
 1005528:	200490fa 	slli	r2,r4,3
 100552c:	1a40230e 	bge	r3,r9,10055bc <__truncdfsf2+0xc4>
 1005530:	40ff2004 	addi	r3,r8,-896
 1005534:	01803f84 	movi	r6,254
 1005538:	30c01516 	blt	r6,r3,1005590 <__truncdfsf2+0x98>
 100553c:	00c0380e 	bge	zero,r3,1005620 <__truncdfsf2+0x128>
 1005540:	200c91ba 	slli	r6,r4,6
 1005544:	380e90fa 	slli	r7,r7,3
 1005548:	1004d77a 	srli	r2,r2,29
 100554c:	300cc03a 	cmpne	r6,r6,zero
 1005550:	31ccb03a 	or	r6,r6,r7
 1005554:	308cb03a 	or	r6,r6,r2
 1005558:	308001cc 	andi	r2,r6,7
 100555c:	10000426 	beq	r2,zero,1005570 <__truncdfsf2+0x78>
 1005560:	308003cc 	andi	r2,r6,15
 1005564:	01000104 	movi	r4,4
 1005568:	11000126 	beq	r2,r4,1005570 <__truncdfsf2+0x78>
 100556c:	31800104 	addi	r6,r6,4
 1005570:	3081002c 	andhi	r2,r6,1024
 1005574:	10001626 	beq	r2,zero,10055d0 <__truncdfsf2+0xd8>
 1005578:	18c00044 	addi	r3,r3,1
 100557c:	00803fc4 	movi	r2,255
 1005580:	18800326 	beq	r3,r2,1005590 <__truncdfsf2+0x98>
 1005584:	300c91ba 	slli	r6,r6,6
 1005588:	300cd27a 	srli	r6,r6,9
 100558c:	00000206 	br	1005598 <__truncdfsf2+0xa0>
 1005590:	00ffffc4 	movi	r3,-1
 1005594:	000d883a 	mov	r6,zero
 1005598:	18c03fcc 	andi	r3,r3,255
 100559c:	180895fa 	slli	r4,r3,23
 10055a0:	00c02034 	movhi	r3,128
 10055a4:	280a97fa 	slli	r5,r5,31
 10055a8:	18ffffc4 	addi	r3,r3,-1
 10055ac:	30c6703a 	and	r3,r6,r3
 10055b0:	1906b03a 	or	r3,r3,r4
 10055b4:	1944b03a 	or	r2,r3,r5
 10055b8:	f800283a 	ret
 10055bc:	40000b1e 	bne	r8,zero,10055ec <__truncdfsf2+0xf4>
 10055c0:	388cb03a 	or	r6,r7,r2
 10055c4:	0007883a 	mov	r3,zero
 10055c8:	30000426 	beq	r6,zero,10055dc <__truncdfsf2+0xe4>
 10055cc:	01800144 	movi	r6,5
 10055d0:	00803fc4 	movi	r2,255
 10055d4:	300cd0fa 	srli	r6,r6,3
 10055d8:	18800a26 	beq	r3,r2,1005604 <__truncdfsf2+0x10c>
 10055dc:	00802034 	movhi	r2,128
 10055e0:	10bfffc4 	addi	r2,r2,-1
 10055e4:	308c703a 	and	r6,r6,r2
 10055e8:	003feb06 	br	1005598 <__truncdfsf2+0xa0>
 10055ec:	3888b03a 	or	r4,r7,r2
 10055f0:	203fe726 	beq	r4,zero,1005590 <__truncdfsf2+0x98>
 10055f4:	380c90fa 	slli	r6,r7,3
 10055f8:	00c03fc4 	movi	r3,255
 10055fc:	31808034 	orhi	r6,r6,512
 1005600:	003fd506 	br	1005558 <__truncdfsf2+0x60>
 1005604:	303fe226 	beq	r6,zero,1005590 <__truncdfsf2+0x98>
 1005608:	00802034 	movhi	r2,128
 100560c:	31801034 	orhi	r6,r6,64
 1005610:	10bfffc4 	addi	r2,r2,-1
 1005614:	00ffffc4 	movi	r3,-1
 1005618:	308c703a 	and	r6,r6,r2
 100561c:	003fde06 	br	1005598 <__truncdfsf2+0xa0>
 1005620:	013ffa44 	movi	r4,-23
 1005624:	19000e16 	blt	r3,r4,1005660 <__truncdfsf2+0x168>
 1005628:	01000784 	movi	r4,30
 100562c:	20c9c83a 	sub	r4,r4,r3
 1005630:	018007c4 	movi	r6,31
 1005634:	39c02034 	orhi	r7,r7,128
 1005638:	31000b16 	blt	r6,r4,1005668 <__truncdfsf2+0x170>
 100563c:	423f2084 	addi	r8,r8,-894
 1005640:	120c983a 	sll	r6,r2,r8
 1005644:	3a0e983a 	sll	r7,r7,r8
 1005648:	1104d83a 	srl	r2,r2,r4
 100564c:	300cc03a 	cmpne	r6,r6,zero
 1005650:	31ceb03a 	or	r7,r6,r7
 1005654:	388cb03a 	or	r6,r7,r2
 1005658:	0007883a 	mov	r3,zero
 100565c:	003fbe06 	br	1005558 <__truncdfsf2+0x60>
 1005660:	0007883a 	mov	r3,zero
 1005664:	003fd906 	br	10055cc <__truncdfsf2+0xd4>
 1005668:	01bfff84 	movi	r6,-2
 100566c:	30cdc83a 	sub	r6,r6,r3
 1005670:	00c00804 	movi	r3,32
 1005674:	398cd83a 	srl	r6,r7,r6
 1005678:	20c00726 	beq	r4,r3,1005698 <__truncdfsf2+0x1a0>
 100567c:	423f2884 	addi	r8,r8,-862
 1005680:	3a0e983a 	sll	r7,r7,r8
 1005684:	3884b03a 	or	r2,r7,r2
 1005688:	1004c03a 	cmpne	r2,r2,zero
 100568c:	118cb03a 	or	r6,r2,r6
 1005690:	0007883a 	mov	r3,zero
 1005694:	003fb006 	br	1005558 <__truncdfsf2+0x60>
 1005698:	000f883a 	mov	r7,zero
 100569c:	003ff906 	br	1005684 <__truncdfsf2+0x18c>

010056a0 <__clzsi2>:
 10056a0:	00bfffd4 	movui	r2,65535
 10056a4:	11000536 	bltu	r2,r4,10056bc <__clzsi2+0x1c>
 10056a8:	00803fc4 	movi	r2,255
 10056ac:	11000f36 	bltu	r2,r4,10056ec <__clzsi2+0x4c>
 10056b0:	00800804 	movi	r2,32
 10056b4:	0007883a 	mov	r3,zero
 10056b8:	00000506 	br	10056d0 <__clzsi2+0x30>
 10056bc:	00804034 	movhi	r2,256
 10056c0:	10bfffc4 	addi	r2,r2,-1
 10056c4:	11000c2e 	bgeu	r2,r4,10056f8 <__clzsi2+0x58>
 10056c8:	00800204 	movi	r2,8
 10056cc:	00c00604 	movi	r3,24
 10056d0:	20c8d83a 	srl	r4,r4,r3
 10056d4:	00c04034 	movhi	r3,256
 10056d8:	18d90004 	addi	r3,r3,25600
 10056dc:	1909883a 	add	r4,r3,r4
 10056e0:	20c00003 	ldbu	r3,0(r4)
 10056e4:	10c5c83a 	sub	r2,r2,r3
 10056e8:	f800283a 	ret
 10056ec:	00800604 	movi	r2,24
 10056f0:	00c00204 	movi	r3,8
 10056f4:	003ff606 	br	10056d0 <__clzsi2+0x30>
 10056f8:	00800404 	movi	r2,16
 10056fc:	1007883a 	mov	r3,r2
 1005700:	003ff306 	br	10056d0 <__clzsi2+0x30>

01005704 <memcpy>:
 1005704:	2005883a 	mov	r2,r4
 1005708:	2007883a 	mov	r3,r4
 100570c:	218d883a 	add	r6,r4,r6
 1005710:	19800526 	beq	r3,r6,1005728 <memcpy+0x24>
 1005714:	29000003 	ldbu	r4,0(r5)
 1005718:	18c00044 	addi	r3,r3,1
 100571c:	29400044 	addi	r5,r5,1
 1005720:	193fffc5 	stb	r4,-1(r3)
 1005724:	003ffa06 	br	1005710 <memcpy+0xc>
 1005728:	f800283a 	ret

0100572c <_printf_r>:
 100572c:	defffd04 	addi	sp,sp,-12
 1005730:	dfc00015 	stw	ra,0(sp)
 1005734:	d9800115 	stw	r6,4(sp)
 1005738:	d9c00215 	stw	r7,8(sp)
 100573c:	20c00217 	ldw	r3,8(r4)
 1005740:	01804034 	movhi	r6,256
 1005744:	31976304 	addi	r6,r6,23948
 1005748:	19800115 	stw	r6,4(r3)
 100574c:	280d883a 	mov	r6,r5
 1005750:	21400217 	ldw	r5,8(r4)
 1005754:	d9c00104 	addi	r7,sp,4
 1005758:	10058440 	call	1005844 <___vfprintf_internal_r>
 100575c:	dfc00017 	ldw	ra,0(sp)
 1005760:	dec00304 	addi	sp,sp,12
 1005764:	f800283a 	ret

01005768 <printf>:
 1005768:	defffc04 	addi	sp,sp,-16
 100576c:	dfc00015 	stw	ra,0(sp)
 1005770:	d9400115 	stw	r5,4(sp)
 1005774:	d9800215 	stw	r6,8(sp)
 1005778:	d9c00315 	stw	r7,12(sp)
 100577c:	00804034 	movhi	r2,256
 1005780:	1099bb04 	addi	r2,r2,26348
 1005784:	10800017 	ldw	r2,0(r2)
 1005788:	01404034 	movhi	r5,256
 100578c:	29576304 	addi	r5,r5,23948
 1005790:	10c00217 	ldw	r3,8(r2)
 1005794:	d9800104 	addi	r6,sp,4
 1005798:	19400115 	stw	r5,4(r3)
 100579c:	200b883a 	mov	r5,r4
 10057a0:	11000217 	ldw	r4,8(r2)
 10057a4:	1005d700 	call	1005d70 <__vfprintf_internal>
 10057a8:	dfc00017 	ldw	ra,0(sp)
 10057ac:	dec00404 	addi	sp,sp,16
 10057b0:	f800283a 	ret

010057b4 <_putchar_r>:
 10057b4:	21800217 	ldw	r6,8(r4)
 10057b8:	1005e981 	jmpi	1005e98 <_putc_r>

010057bc <putchar>:
 10057bc:	00804034 	movhi	r2,256
 10057c0:	1099bb04 	addi	r2,r2,26348
 10057c4:	10800017 	ldw	r2,0(r2)
 10057c8:	200b883a 	mov	r5,r4
 10057cc:	11800217 	ldw	r6,8(r2)
 10057d0:	1009883a 	mov	r4,r2
 10057d4:	1005e981 	jmpi	1005e98 <_putc_r>

010057d8 <print_repeat>:
 10057d8:	defffb04 	addi	sp,sp,-20
 10057dc:	dc800315 	stw	r18,12(sp)
 10057e0:	dc400215 	stw	r17,8(sp)
 10057e4:	dc000115 	stw	r16,4(sp)
 10057e8:	dfc00415 	stw	ra,16(sp)
 10057ec:	2025883a 	mov	r18,r4
 10057f0:	2823883a 	mov	r17,r5
 10057f4:	d9800005 	stb	r6,0(sp)
 10057f8:	3821883a 	mov	r16,r7
 10057fc:	04000a0e 	bge	zero,r16,1005828 <print_repeat+0x50>
 1005800:	88800117 	ldw	r2,4(r17)
 1005804:	01c00044 	movi	r7,1
 1005808:	d80d883a 	mov	r6,sp
 100580c:	880b883a 	mov	r5,r17
 1005810:	9009883a 	mov	r4,r18
 1005814:	103ee83a 	callr	r2
 1005818:	843fffc4 	addi	r16,r16,-1
 100581c:	103ff726 	beq	r2,zero,10057fc <print_repeat+0x24>
 1005820:	00bfffc4 	movi	r2,-1
 1005824:	00000106 	br	100582c <print_repeat+0x54>
 1005828:	0005883a 	mov	r2,zero
 100582c:	dfc00417 	ldw	ra,16(sp)
 1005830:	dc800317 	ldw	r18,12(sp)
 1005834:	dc400217 	ldw	r17,8(sp)
 1005838:	dc000117 	ldw	r16,4(sp)
 100583c:	dec00504 	addi	sp,sp,20
 1005840:	f800283a 	ret

01005844 <___vfprintf_internal_r>:
 1005844:	deffe504 	addi	sp,sp,-108
 1005848:	d8c00804 	addi	r3,sp,32
 100584c:	ddc01815 	stw	r23,96(sp)
 1005850:	dd801715 	stw	r22,92(sp)
 1005854:	dd401615 	stw	r21,88(sp)
 1005858:	dd001515 	stw	r20,84(sp)
 100585c:	dcc01415 	stw	r19,80(sp)
 1005860:	dc801315 	stw	r18,76(sp)
 1005864:	dc401215 	stw	r17,72(sp)
 1005868:	dc001115 	stw	r16,68(sp)
 100586c:	dfc01a15 	stw	ra,104(sp)
 1005870:	df001915 	stw	fp,100(sp)
 1005874:	2029883a 	mov	r20,r4
 1005878:	2823883a 	mov	r17,r5
 100587c:	382d883a 	mov	r22,r7
 1005880:	d9800f15 	stw	r6,60(sp)
 1005884:	0021883a 	mov	r16,zero
 1005888:	d8000e15 	stw	zero,56(sp)
 100588c:	d8000a15 	stw	zero,40(sp)
 1005890:	002b883a 	mov	r21,zero
 1005894:	0027883a 	mov	r19,zero
 1005898:	0025883a 	mov	r18,zero
 100589c:	d8000c15 	stw	zero,48(sp)
 10058a0:	d8000b15 	stw	zero,44(sp)
 10058a4:	002f883a 	mov	r23,zero
 10058a8:	d8c00915 	stw	r3,36(sp)
 10058ac:	d8c00f17 	ldw	r3,60(sp)
 10058b0:	19000003 	ldbu	r4,0(r3)
 10058b4:	20803fcc 	andi	r2,r4,255
 10058b8:	1080201c 	xori	r2,r2,128
 10058bc:	10bfe004 	addi	r2,r2,-128
 10058c0:	10011e26 	beq	r2,zero,1005d3c <___vfprintf_internal_r+0x4f8>
 10058c4:	00c00044 	movi	r3,1
 10058c8:	b8c01426 	beq	r23,r3,100591c <___vfprintf_internal_r+0xd8>
 10058cc:	1dc00216 	blt	r3,r23,10058d8 <___vfprintf_internal_r+0x94>
 10058d0:	b8000626 	beq	r23,zero,10058ec <___vfprintf_internal_r+0xa8>
 10058d4:	00011506 	br	1005d2c <___vfprintf_internal_r+0x4e8>
 10058d8:	01400084 	movi	r5,2
 10058dc:	b9401d26 	beq	r23,r5,1005954 <___vfprintf_internal_r+0x110>
 10058e0:	014000c4 	movi	r5,3
 10058e4:	b9402b26 	beq	r23,r5,1005994 <___vfprintf_internal_r+0x150>
 10058e8:	00011006 	br	1005d2c <___vfprintf_internal_r+0x4e8>
 10058ec:	01400944 	movi	r5,37
 10058f0:	1140fc26 	beq	r2,r5,1005ce4 <___vfprintf_internal_r+0x4a0>
 10058f4:	88800117 	ldw	r2,4(r17)
 10058f8:	d9000005 	stb	r4,0(sp)
 10058fc:	01c00044 	movi	r7,1
 1005900:	d80d883a 	mov	r6,sp
 1005904:	880b883a 	mov	r5,r17
 1005908:	a009883a 	mov	r4,r20
 100590c:	103ee83a 	callr	r2
 1005910:	1000d81e 	bne	r2,zero,1005c74 <___vfprintf_internal_r+0x430>
 1005914:	84000044 	addi	r16,r16,1
 1005918:	00010406 	br	1005d2c <___vfprintf_internal_r+0x4e8>
 100591c:	01400c04 	movi	r5,48
 1005920:	1140fa26 	beq	r2,r5,1005d0c <___vfprintf_internal_r+0x4c8>
 1005924:	01400944 	movi	r5,37
 1005928:	11400a1e 	bne	r2,r5,1005954 <___vfprintf_internal_r+0x110>
 100592c:	d8800005 	stb	r2,0(sp)
 1005930:	88800117 	ldw	r2,4(r17)
 1005934:	b80f883a 	mov	r7,r23
 1005938:	d80d883a 	mov	r6,sp
 100593c:	880b883a 	mov	r5,r17
 1005940:	a009883a 	mov	r4,r20
 1005944:	103ee83a 	callr	r2
 1005948:	1000ca1e 	bne	r2,zero,1005c74 <___vfprintf_internal_r+0x430>
 100594c:	84000044 	addi	r16,r16,1
 1005950:	0000f506 	br	1005d28 <___vfprintf_internal_r+0x4e4>
 1005954:	25fff404 	addi	r23,r4,-48
 1005958:	bdc03fcc 	andi	r23,r23,255
 100595c:	00c00244 	movi	r3,9
 1005960:	1dc00936 	bltu	r3,r23,1005988 <___vfprintf_internal_r+0x144>
 1005964:	00bfffc4 	movi	r2,-1
 1005968:	90800426 	beq	r18,r2,100597c <___vfprintf_internal_r+0x138>
 100596c:	01400284 	movi	r5,10
 1005970:	9009883a 	mov	r4,r18
 1005974:	1002e940 	call	1002e94 <__mulsi3>
 1005978:	00000106 	br	1005980 <___vfprintf_internal_r+0x13c>
 100597c:	0005883a 	mov	r2,zero
 1005980:	b8a5883a 	add	r18,r23,r2
 1005984:	0000e206 	br	1005d10 <___vfprintf_internal_r+0x4cc>
 1005988:	01400b84 	movi	r5,46
 100598c:	1140e426 	beq	r2,r5,1005d20 <___vfprintf_internal_r+0x4dc>
 1005990:	05c00084 	movi	r23,2
 1005994:	213ff404 	addi	r4,r4,-48
 1005998:	27003fcc 	andi	fp,r4,255
 100599c:	00c00244 	movi	r3,9
 10059a0:	1f000936 	bltu	r3,fp,10059c8 <___vfprintf_internal_r+0x184>
 10059a4:	00bfffc4 	movi	r2,-1
 10059a8:	98800426 	beq	r19,r2,10059bc <___vfprintf_internal_r+0x178>
 10059ac:	01400284 	movi	r5,10
 10059b0:	9809883a 	mov	r4,r19
 10059b4:	1002e940 	call	1002e94 <__mulsi3>
 10059b8:	00000106 	br	10059c0 <___vfprintf_internal_r+0x17c>
 10059bc:	0005883a 	mov	r2,zero
 10059c0:	e0a7883a 	add	r19,fp,r2
 10059c4:	0000d906 	br	1005d2c <___vfprintf_internal_r+0x4e8>
 10059c8:	00c01b04 	movi	r3,108
 10059cc:	10c0d226 	beq	r2,r3,1005d18 <___vfprintf_internal_r+0x4d4>
 10059d0:	013fffc4 	movi	r4,-1
 10059d4:	99000226 	beq	r19,r4,10059e0 <___vfprintf_internal_r+0x19c>
 10059d8:	d8000b15 	stw	zero,44(sp)
 10059dc:	00000106 	br	10059e4 <___vfprintf_internal_r+0x1a0>
 10059e0:	04c00044 	movi	r19,1
 10059e4:	01001a44 	movi	r4,105
 10059e8:	11001626 	beq	r2,r4,1005a44 <___vfprintf_internal_r+0x200>
 10059ec:	20800916 	blt	r4,r2,1005a14 <___vfprintf_internal_r+0x1d0>
 10059f0:	010018c4 	movi	r4,99
 10059f4:	11008826 	beq	r2,r4,1005c18 <___vfprintf_internal_r+0x3d4>
 10059f8:	01001904 	movi	r4,100
 10059fc:	11001126 	beq	r2,r4,1005a44 <___vfprintf_internal_r+0x200>
 1005a00:	01001604 	movi	r4,88
 1005a04:	1100c81e 	bne	r2,r4,1005d28 <___vfprintf_internal_r+0x4e4>
 1005a08:	00c00044 	movi	r3,1
 1005a0c:	d8c00e15 	stw	r3,56(sp)
 1005a10:	00001506 	br	1005a68 <___vfprintf_internal_r+0x224>
 1005a14:	01001cc4 	movi	r4,115
 1005a18:	11009826 	beq	r2,r4,1005c7c <___vfprintf_internal_r+0x438>
 1005a1c:	20800416 	blt	r4,r2,1005a30 <___vfprintf_internal_r+0x1ec>
 1005a20:	01001bc4 	movi	r4,111
 1005a24:	1100c01e 	bne	r2,r4,1005d28 <___vfprintf_internal_r+0x4e4>
 1005a28:	05400204 	movi	r21,8
 1005a2c:	00000f06 	br	1005a6c <___vfprintf_internal_r+0x228>
 1005a30:	01001d44 	movi	r4,117
 1005a34:	11000d26 	beq	r2,r4,1005a6c <___vfprintf_internal_r+0x228>
 1005a38:	01001e04 	movi	r4,120
 1005a3c:	11000a26 	beq	r2,r4,1005a68 <___vfprintf_internal_r+0x224>
 1005a40:	0000b906 	br	1005d28 <___vfprintf_internal_r+0x4e4>
 1005a44:	d8c00a17 	ldw	r3,40(sp)
 1005a48:	b7000104 	addi	fp,r22,4
 1005a4c:	18000726 	beq	r3,zero,1005a6c <___vfprintf_internal_r+0x228>
 1005a50:	df000d15 	stw	fp,52(sp)
 1005a54:	b5c00017 	ldw	r23,0(r22)
 1005a58:	b800080e 	bge	r23,zero,1005a7c <___vfprintf_internal_r+0x238>
 1005a5c:	05efc83a 	sub	r23,zero,r23
 1005a60:	02400044 	movi	r9,1
 1005a64:	00000606 	br	1005a80 <___vfprintf_internal_r+0x23c>
 1005a68:	05400404 	movi	r21,16
 1005a6c:	b0c00104 	addi	r3,r22,4
 1005a70:	d8c00d15 	stw	r3,52(sp)
 1005a74:	b5c00017 	ldw	r23,0(r22)
 1005a78:	d8000a15 	stw	zero,40(sp)
 1005a7c:	0013883a 	mov	r9,zero
 1005a80:	d839883a 	mov	fp,sp
 1005a84:	b8001726 	beq	r23,zero,1005ae4 <___vfprintf_internal_r+0x2a0>
 1005a88:	a80b883a 	mov	r5,r21
 1005a8c:	b809883a 	mov	r4,r23
 1005a90:	da401015 	stw	r9,64(sp)
 1005a94:	1002dd80 	call	1002dd8 <__udivsi3>
 1005a98:	a80b883a 	mov	r5,r21
 1005a9c:	1009883a 	mov	r4,r2
 1005aa0:	102d883a 	mov	r22,r2
 1005aa4:	1002e940 	call	1002e94 <__mulsi3>
 1005aa8:	b885c83a 	sub	r2,r23,r2
 1005aac:	00c00244 	movi	r3,9
 1005ab0:	da401017 	ldw	r9,64(sp)
 1005ab4:	18800216 	blt	r3,r2,1005ac0 <___vfprintf_internal_r+0x27c>
 1005ab8:	10800c04 	addi	r2,r2,48
 1005abc:	00000506 	br	1005ad4 <___vfprintf_internal_r+0x290>
 1005ac0:	d8c00e17 	ldw	r3,56(sp)
 1005ac4:	18000226 	beq	r3,zero,1005ad0 <___vfprintf_internal_r+0x28c>
 1005ac8:	10800dc4 	addi	r2,r2,55
 1005acc:	00000106 	br	1005ad4 <___vfprintf_internal_r+0x290>
 1005ad0:	108015c4 	addi	r2,r2,87
 1005ad4:	e0800005 	stb	r2,0(fp)
 1005ad8:	b02f883a 	mov	r23,r22
 1005adc:	e7000044 	addi	fp,fp,1
 1005ae0:	003fe806 	br	1005a84 <___vfprintf_internal_r+0x240>
 1005ae4:	e6efc83a 	sub	r23,fp,sp
 1005ae8:	9dc5c83a 	sub	r2,r19,r23
 1005aec:	0080090e 	bge	zero,r2,1005b14 <___vfprintf_internal_r+0x2d0>
 1005af0:	e085883a 	add	r2,fp,r2
 1005af4:	01400c04 	movi	r5,48
 1005af8:	d8c00917 	ldw	r3,36(sp)
 1005afc:	e009883a 	mov	r4,fp
 1005b00:	e0c0032e 	bgeu	fp,r3,1005b10 <___vfprintf_internal_r+0x2cc>
 1005b04:	e7000044 	addi	fp,fp,1
 1005b08:	21400005 	stb	r5,0(r4)
 1005b0c:	e0bffa1e 	bne	fp,r2,1005af8 <___vfprintf_internal_r+0x2b4>
 1005b10:	e6efc83a 	sub	r23,fp,sp
 1005b14:	d8c00b17 	ldw	r3,44(sp)
 1005b18:	4dd1883a 	add	r8,r9,r23
 1005b1c:	922dc83a 	sub	r22,r18,r8
 1005b20:	18001626 	beq	r3,zero,1005b7c <___vfprintf_internal_r+0x338>
 1005b24:	48000a26 	beq	r9,zero,1005b50 <___vfprintf_internal_r+0x30c>
 1005b28:	00800b44 	movi	r2,45
 1005b2c:	d8800805 	stb	r2,32(sp)
 1005b30:	88800117 	ldw	r2,4(r17)
 1005b34:	01c00044 	movi	r7,1
 1005b38:	d9800804 	addi	r6,sp,32
 1005b3c:	880b883a 	mov	r5,r17
 1005b40:	a009883a 	mov	r4,r20
 1005b44:	103ee83a 	callr	r2
 1005b48:	10004a1e 	bne	r2,zero,1005c74 <___vfprintf_internal_r+0x430>
 1005b4c:	84000044 	addi	r16,r16,1
 1005b50:	0580070e 	bge	zero,r22,1005b70 <___vfprintf_internal_r+0x32c>
 1005b54:	b00f883a 	mov	r7,r22
 1005b58:	01800c04 	movi	r6,48
 1005b5c:	880b883a 	mov	r5,r17
 1005b60:	a009883a 	mov	r4,r20
 1005b64:	10057d80 	call	10057d8 <print_repeat>
 1005b68:	1000421e 	bne	r2,zero,1005c74 <___vfprintf_internal_r+0x430>
 1005b6c:	85a1883a 	add	r16,r16,r22
 1005b70:	e02d883a 	mov	r22,fp
 1005b74:	bf2fc83a 	sub	r23,r23,fp
 1005b78:	00002006 	br	1005bfc <___vfprintf_internal_r+0x3b8>
 1005b7c:	0580090e 	bge	zero,r22,1005ba4 <___vfprintf_internal_r+0x360>
 1005b80:	b00f883a 	mov	r7,r22
 1005b84:	01800804 	movi	r6,32
 1005b88:	880b883a 	mov	r5,r17
 1005b8c:	a009883a 	mov	r4,r20
 1005b90:	da401015 	stw	r9,64(sp)
 1005b94:	10057d80 	call	10057d8 <print_repeat>
 1005b98:	da401017 	ldw	r9,64(sp)
 1005b9c:	1000351e 	bne	r2,zero,1005c74 <___vfprintf_internal_r+0x430>
 1005ba0:	85a1883a 	add	r16,r16,r22
 1005ba4:	483ff226 	beq	r9,zero,1005b70 <___vfprintf_internal_r+0x32c>
 1005ba8:	00800b44 	movi	r2,45
 1005bac:	d8800805 	stb	r2,32(sp)
 1005bb0:	88800117 	ldw	r2,4(r17)
 1005bb4:	01c00044 	movi	r7,1
 1005bb8:	d9800804 	addi	r6,sp,32
 1005bbc:	880b883a 	mov	r5,r17
 1005bc0:	a009883a 	mov	r4,r20
 1005bc4:	103ee83a 	callr	r2
 1005bc8:	10002a1e 	bne	r2,zero,1005c74 <___vfprintf_internal_r+0x430>
 1005bcc:	84000044 	addi	r16,r16,1
 1005bd0:	003fe706 	br	1005b70 <___vfprintf_internal_r+0x32c>
 1005bd4:	b5bfffc4 	addi	r22,r22,-1
 1005bd8:	b0800003 	ldbu	r2,0(r22)
 1005bdc:	01c00044 	movi	r7,1
 1005be0:	d9800804 	addi	r6,sp,32
 1005be4:	d8800805 	stb	r2,32(sp)
 1005be8:	88800117 	ldw	r2,4(r17)
 1005bec:	880b883a 	mov	r5,r17
 1005bf0:	a009883a 	mov	r4,r20
 1005bf4:	103ee83a 	callr	r2
 1005bf8:	10001e1e 	bne	r2,zero,1005c74 <___vfprintf_internal_r+0x430>
 1005bfc:	8585c83a 	sub	r2,r16,r22
 1005c00:	b5c9883a 	add	r4,r22,r23
 1005c04:	e085883a 	add	r2,fp,r2
 1005c08:	013ff216 	blt	zero,r4,1005bd4 <___vfprintf_internal_r+0x390>
 1005c0c:	1021883a 	mov	r16,r2
 1005c10:	dd800d17 	ldw	r22,52(sp)
 1005c14:	00004406 	br	1005d28 <___vfprintf_internal_r+0x4e4>
 1005c18:	00800044 	movi	r2,1
 1005c1c:	1480080e 	bge	r2,r18,1005c40 <___vfprintf_internal_r+0x3fc>
 1005c20:	95ffffc4 	addi	r23,r18,-1
 1005c24:	b80f883a 	mov	r7,r23
 1005c28:	01800804 	movi	r6,32
 1005c2c:	880b883a 	mov	r5,r17
 1005c30:	a009883a 	mov	r4,r20
 1005c34:	10057d80 	call	10057d8 <print_repeat>
 1005c38:	10000e1e 	bne	r2,zero,1005c74 <___vfprintf_internal_r+0x430>
 1005c3c:	85e1883a 	add	r16,r16,r23
 1005c40:	b0800017 	ldw	r2,0(r22)
 1005c44:	01c00044 	movi	r7,1
 1005c48:	d80d883a 	mov	r6,sp
 1005c4c:	d8800005 	stb	r2,0(sp)
 1005c50:	88800117 	ldw	r2,4(r17)
 1005c54:	880b883a 	mov	r5,r17
 1005c58:	a009883a 	mov	r4,r20
 1005c5c:	b5c00104 	addi	r23,r22,4
 1005c60:	103ee83a 	callr	r2
 1005c64:	1000031e 	bne	r2,zero,1005c74 <___vfprintf_internal_r+0x430>
 1005c68:	84000044 	addi	r16,r16,1
 1005c6c:	b82d883a 	mov	r22,r23
 1005c70:	00002d06 	br	1005d28 <___vfprintf_internal_r+0x4e4>
 1005c74:	00bfffc4 	movi	r2,-1
 1005c78:	00003106 	br	1005d40 <___vfprintf_internal_r+0x4fc>
 1005c7c:	b5c00017 	ldw	r23,0(r22)
 1005c80:	b7000104 	addi	fp,r22,4
 1005c84:	b809883a 	mov	r4,r23
 1005c88:	1005ef00 	call	1005ef0 <strlen>
 1005c8c:	9091c83a 	sub	r8,r18,r2
 1005c90:	102d883a 	mov	r22,r2
 1005c94:	0200090e 	bge	zero,r8,1005cbc <___vfprintf_internal_r+0x478>
 1005c98:	400f883a 	mov	r7,r8
 1005c9c:	01800804 	movi	r6,32
 1005ca0:	880b883a 	mov	r5,r17
 1005ca4:	a009883a 	mov	r4,r20
 1005ca8:	da001015 	stw	r8,64(sp)
 1005cac:	10057d80 	call	10057d8 <print_repeat>
 1005cb0:	da001017 	ldw	r8,64(sp)
 1005cb4:	103fef1e 	bne	r2,zero,1005c74 <___vfprintf_internal_r+0x430>
 1005cb8:	8221883a 	add	r16,r16,r8
 1005cbc:	88800117 	ldw	r2,4(r17)
 1005cc0:	b00f883a 	mov	r7,r22
 1005cc4:	b80d883a 	mov	r6,r23
 1005cc8:	880b883a 	mov	r5,r17
 1005ccc:	a009883a 	mov	r4,r20
 1005cd0:	103ee83a 	callr	r2
 1005cd4:	103fe71e 	bne	r2,zero,1005c74 <___vfprintf_internal_r+0x430>
 1005cd8:	85a1883a 	add	r16,r16,r22
 1005cdc:	e02d883a 	mov	r22,fp
 1005ce0:	00001106 	br	1005d28 <___vfprintf_internal_r+0x4e4>
 1005ce4:	00c00044 	movi	r3,1
 1005ce8:	04ffffc4 	movi	r19,-1
 1005cec:	d8000e15 	stw	zero,56(sp)
 1005cf0:	d8c00a15 	stw	r3,40(sp)
 1005cf4:	05400284 	movi	r21,10
 1005cf8:	9825883a 	mov	r18,r19
 1005cfc:	d8000c15 	stw	zero,48(sp)
 1005d00:	d8000b15 	stw	zero,44(sp)
 1005d04:	182f883a 	mov	r23,r3
 1005d08:	00000806 	br	1005d2c <___vfprintf_internal_r+0x4e8>
 1005d0c:	ddc00b15 	stw	r23,44(sp)
 1005d10:	05c00084 	movi	r23,2
 1005d14:	00000506 	br	1005d2c <___vfprintf_internal_r+0x4e8>
 1005d18:	00c00044 	movi	r3,1
 1005d1c:	d8c00c15 	stw	r3,48(sp)
 1005d20:	05c000c4 	movi	r23,3
 1005d24:	00000106 	br	1005d2c <___vfprintf_internal_r+0x4e8>
 1005d28:	002f883a 	mov	r23,zero
 1005d2c:	d8c00f17 	ldw	r3,60(sp)
 1005d30:	18c00044 	addi	r3,r3,1
 1005d34:	d8c00f15 	stw	r3,60(sp)
 1005d38:	003edc06 	br	10058ac <___vfprintf_internal_r+0x68>
 1005d3c:	8005883a 	mov	r2,r16
 1005d40:	dfc01a17 	ldw	ra,104(sp)
 1005d44:	df001917 	ldw	fp,100(sp)
 1005d48:	ddc01817 	ldw	r23,96(sp)
 1005d4c:	dd801717 	ldw	r22,92(sp)
 1005d50:	dd401617 	ldw	r21,88(sp)
 1005d54:	dd001517 	ldw	r20,84(sp)
 1005d58:	dcc01417 	ldw	r19,80(sp)
 1005d5c:	dc801317 	ldw	r18,76(sp)
 1005d60:	dc401217 	ldw	r17,72(sp)
 1005d64:	dc001117 	ldw	r16,68(sp)
 1005d68:	dec01b04 	addi	sp,sp,108
 1005d6c:	f800283a 	ret

01005d70 <__vfprintf_internal>:
 1005d70:	00804034 	movhi	r2,256
 1005d74:	1099bb04 	addi	r2,r2,26348
 1005d78:	300f883a 	mov	r7,r6
 1005d7c:	280d883a 	mov	r6,r5
 1005d80:	200b883a 	mov	r5,r4
 1005d84:	11000017 	ldw	r4,0(r2)
 1005d88:	10058441 	jmpi	1005844 <___vfprintf_internal_r>

01005d8c <__sfvwrite_small_dev>:
 1005d8c:	2880000b 	ldhu	r2,0(r5)
 1005d90:	1080020c 	andi	r2,r2,8
 1005d94:	10002126 	beq	r2,zero,1005e1c <__sfvwrite_small_dev+0x90>
 1005d98:	2880008f 	ldh	r2,2(r5)
 1005d9c:	defffa04 	addi	sp,sp,-24
 1005da0:	dc000015 	stw	r16,0(sp)
 1005da4:	dfc00515 	stw	ra,20(sp)
 1005da8:	dd000415 	stw	r20,16(sp)
 1005dac:	dcc00315 	stw	r19,12(sp)
 1005db0:	dc800215 	stw	r18,8(sp)
 1005db4:	dc400115 	stw	r17,4(sp)
 1005db8:	2821883a 	mov	r16,r5
 1005dbc:	10001216 	blt	r2,zero,1005e08 <__sfvwrite_small_dev+0x7c>
 1005dc0:	2027883a 	mov	r19,r4
 1005dc4:	3025883a 	mov	r18,r6
 1005dc8:	3823883a 	mov	r17,r7
 1005dcc:	05010004 	movi	r20,1024
 1005dd0:	04400b0e 	bge	zero,r17,1005e00 <__sfvwrite_small_dev+0x74>
 1005dd4:	880f883a 	mov	r7,r17
 1005dd8:	a440010e 	bge	r20,r17,1005de0 <__sfvwrite_small_dev+0x54>
 1005ddc:	01c10004 	movi	r7,1024
 1005de0:	8140008f 	ldh	r5,2(r16)
 1005de4:	900d883a 	mov	r6,r18
 1005de8:	9809883a 	mov	r4,r19
 1005dec:	1005f0c0 	call	1005f0c <_write_r>
 1005df0:	0080050e 	bge	zero,r2,1005e08 <__sfvwrite_small_dev+0x7c>
 1005df4:	88a3c83a 	sub	r17,r17,r2
 1005df8:	90a5883a 	add	r18,r18,r2
 1005dfc:	003ff406 	br	1005dd0 <__sfvwrite_small_dev+0x44>
 1005e00:	0005883a 	mov	r2,zero
 1005e04:	00000706 	br	1005e24 <__sfvwrite_small_dev+0x98>
 1005e08:	8080000b 	ldhu	r2,0(r16)
 1005e0c:	10801014 	ori	r2,r2,64
 1005e10:	8080000d 	sth	r2,0(r16)
 1005e14:	00bfffc4 	movi	r2,-1
 1005e18:	00000206 	br	1005e24 <__sfvwrite_small_dev+0x98>
 1005e1c:	00bfffc4 	movi	r2,-1
 1005e20:	f800283a 	ret
 1005e24:	dfc00517 	ldw	ra,20(sp)
 1005e28:	dd000417 	ldw	r20,16(sp)
 1005e2c:	dcc00317 	ldw	r19,12(sp)
 1005e30:	dc800217 	ldw	r18,8(sp)
 1005e34:	dc400117 	ldw	r17,4(sp)
 1005e38:	dc000017 	ldw	r16,0(sp)
 1005e3c:	dec00604 	addi	sp,sp,24
 1005e40:	f800283a 	ret

01005e44 <putc>:
 1005e44:	defffd04 	addi	sp,sp,-12
 1005e48:	00804034 	movhi	r2,256
 1005e4c:	dc000115 	stw	r16,4(sp)
 1005e50:	dfc00215 	stw	ra,8(sp)
 1005e54:	10976304 	addi	r2,r2,23948
 1005e58:	28800115 	stw	r2,4(r5)
 1005e5c:	00804034 	movhi	r2,256
 1005e60:	1099bb04 	addi	r2,r2,26348
 1005e64:	d9000005 	stb	r4,0(sp)
 1005e68:	2021883a 	mov	r16,r4
 1005e6c:	11000017 	ldw	r4,0(r2)
 1005e70:	01c00044 	movi	r7,1
 1005e74:	d80d883a 	mov	r6,sp
 1005e78:	1005d8c0 	call	1005d8c <__sfvwrite_small_dev>
 1005e7c:	00ffffc4 	movi	r3,-1
 1005e80:	10c00126 	beq	r2,r3,1005e88 <putc+0x44>
 1005e84:	8005883a 	mov	r2,r16
 1005e88:	dfc00217 	ldw	ra,8(sp)
 1005e8c:	dc000117 	ldw	r16,4(sp)
 1005e90:	dec00304 	addi	sp,sp,12
 1005e94:	f800283a 	ret

01005e98 <_putc_r>:
 1005e98:	defffd04 	addi	sp,sp,-12
 1005e9c:	00804034 	movhi	r2,256
 1005ea0:	dc000115 	stw	r16,4(sp)
 1005ea4:	dfc00215 	stw	ra,8(sp)
 1005ea8:	10976304 	addi	r2,r2,23948
 1005eac:	30800115 	stw	r2,4(r6)
 1005eb0:	00804034 	movhi	r2,256
 1005eb4:	1099bb04 	addi	r2,r2,26348
 1005eb8:	11000017 	ldw	r4,0(r2)
 1005ebc:	2821883a 	mov	r16,r5
 1005ec0:	01c00044 	movi	r7,1
 1005ec4:	300b883a 	mov	r5,r6
 1005ec8:	d80d883a 	mov	r6,sp
 1005ecc:	dc000005 	stb	r16,0(sp)
 1005ed0:	1005d8c0 	call	1005d8c <__sfvwrite_small_dev>
 1005ed4:	00ffffc4 	movi	r3,-1
 1005ed8:	10c00126 	beq	r2,r3,1005ee0 <_putc_r+0x48>
 1005edc:	8005883a 	mov	r2,r16
 1005ee0:	dfc00217 	ldw	ra,8(sp)
 1005ee4:	dc000117 	ldw	r16,4(sp)
 1005ee8:	dec00304 	addi	sp,sp,12
 1005eec:	f800283a 	ret

01005ef0 <strlen>:
 1005ef0:	2005883a 	mov	r2,r4
 1005ef4:	10c00007 	ldb	r3,0(r2)
 1005ef8:	18000226 	beq	r3,zero,1005f04 <strlen+0x14>
 1005efc:	10800044 	addi	r2,r2,1
 1005f00:	003ffc06 	br	1005ef4 <strlen+0x4>
 1005f04:	1105c83a 	sub	r2,r2,r4
 1005f08:	f800283a 	ret

01005f0c <_write_r>:
 1005f0c:	defffd04 	addi	sp,sp,-12
 1005f10:	dc000015 	stw	r16,0(sp)
 1005f14:	04004034 	movhi	r16,256
 1005f18:	dc400115 	stw	r17,4(sp)
 1005f1c:	841a3c04 	addi	r16,r16,26864
 1005f20:	2023883a 	mov	r17,r4
 1005f24:	2809883a 	mov	r4,r5
 1005f28:	300b883a 	mov	r5,r6
 1005f2c:	380d883a 	mov	r6,r7
 1005f30:	dfc00215 	stw	ra,8(sp)
 1005f34:	80000015 	stw	zero,0(r16)
 1005f38:	100605c0 	call	100605c <write>
 1005f3c:	00ffffc4 	movi	r3,-1
 1005f40:	10c0031e 	bne	r2,r3,1005f50 <_write_r+0x44>
 1005f44:	80c00017 	ldw	r3,0(r16)
 1005f48:	18000126 	beq	r3,zero,1005f50 <_write_r+0x44>
 1005f4c:	88c00015 	stw	r3,0(r17)
 1005f50:	dfc00217 	ldw	ra,8(sp)
 1005f54:	dc400117 	ldw	r17,4(sp)
 1005f58:	dc000017 	ldw	r16,0(sp)
 1005f5c:	dec00304 	addi	sp,sp,12
 1005f60:	f800283a 	ret

01005f64 <alt_load>:
 * there is no bootloader, so this application is responsible for loading to
 * RAM any sections that are required.
 */  

void alt_load (void)
{
 1005f64:	deffff04 	addi	sp,sp,-4

static void ALT_INLINE alt_load_section (alt_u32* from, 
                                         alt_u32* to, 
                                         alt_u32* end)
{
  if (to != from)
 1005f68:	01004034 	movhi	r4,256
 1005f6c:	01404034 	movhi	r5,256
 1005f70:	dfc00015 	stw	ra,0(sp)
 1005f74:	21194004 	addi	r4,r4,25856
 1005f78:	2959be04 	addi	r5,r5,26360
 1005f7c:	21400a26 	beq	r4,r5,1005fa8 <alt_load+0x44>
  {
    while( to != end )
 1005f80:	00804034 	movhi	r2,256
 1005f84:	1099be04 	addi	r2,r2,26360
 1005f88:	20800726 	beq	r4,r2,1005fa8 <alt_load+0x44>
    {
      *to++ = *from++;
 1005f8c:	21800104 	addi	r6,r4,4
 1005f90:	118dc83a 	sub	r6,r2,r6
 1005f94:	300cd0ba 	srli	r6,r6,2
 1005f98:	31800044 	addi	r6,r6,1
 1005f9c:	318d883a 	add	r6,r6,r6
 1005fa0:	318d883a 	add	r6,r6,r6
 1005fa4:	10057040 	call	1005704 <memcpy>

static void ALT_INLINE alt_load_section (alt_u32* from, 
                                         alt_u32* to, 
                                         alt_u32* end)
{
  if (to != from)
 1005fa8:	01004034 	movhi	r4,256
 1005fac:	01404034 	movhi	r5,256
 1005fb0:	21000804 	addi	r4,r4,32
 1005fb4:	29400804 	addi	r5,r5,32
 1005fb8:	21400a26 	beq	r4,r5,1005fe4 <alt_load+0x80>
  {
    while( to != end )
 1005fbc:	00804034 	movhi	r2,256
 1005fc0:	10800804 	addi	r2,r2,32
 1005fc4:	20800726 	beq	r4,r2,1005fe4 <alt_load+0x80>
    {
      *to++ = *from++;
 1005fc8:	21800104 	addi	r6,r4,4
 1005fcc:	118dc83a 	sub	r6,r2,r6
 1005fd0:	300cd0ba 	srli	r6,r6,2
 1005fd4:	31800044 	addi	r6,r6,1
 1005fd8:	318d883a 	add	r6,r6,r6
 1005fdc:	318d883a 	add	r6,r6,r6
 1005fe0:	10057040 	call	1005704 <memcpy>

static void ALT_INLINE alt_load_section (alt_u32* from, 
                                         alt_u32* to, 
                                         alt_u32* end)
{
  if (to != from)
 1005fe4:	01004034 	movhi	r4,256
 1005fe8:	01404034 	movhi	r5,256
 1005fec:	21184904 	addi	r4,r4,24868
 1005ff0:	29584904 	addi	r5,r5,24868
 1005ff4:	21400a26 	beq	r4,r5,1006020 <alt_load+0xbc>
  {
    while( to != end )
 1005ff8:	00804034 	movhi	r2,256
 1005ffc:	10994004 	addi	r2,r2,25856
 1006000:	20800726 	beq	r4,r2,1006020 <alt_load+0xbc>
    {
      *to++ = *from++;
 1006004:	21800104 	addi	r6,r4,4
 1006008:	118dc83a 	sub	r6,r2,r6
 100600c:	300cd0ba 	srli	r6,r6,2
 1006010:	31800044 	addi	r6,r6,1
 1006014:	318d883a 	add	r6,r6,r6
 1006018:	318d883a 	add	r6,r6,r6
 100601c:	10057040 	call	1005704 <memcpy>
  
  /*
   * Now ensure that the caches are in synch.
   */
  
  alt_dcache_flush_all();
 1006020:	10061140 	call	1006114 <alt_dcache_flush_all>
  alt_icache_flush_all();
}
 1006024:	dfc00017 	ldw	ra,0(sp)
 1006028:	dec00104 	addi	sp,sp,4
  /*
   * Now ensure that the caches are in synch.
   */
  
  alt_dcache_flush_all();
  alt_icache_flush_all();
 100602c:	10061181 	jmpi	1006118 <alt_icache_flush_all>

01006030 <alt_main>:
 * devices/filesystems/components in the system; and call the entry point for
 * the users application, i.e. main().
 */

void alt_main (void)
{
 1006030:	deffff04 	addi	sp,sp,-4
#endif

  /* ALT LOG - please see HAL/sys/alt_log_printf.h for details */
  ALT_LOG_PRINT_BOOT("[alt_main.c] Entering alt_main, calling alt_irq_init.\r\n");
  /* Initialize the interrupt controller. */
  alt_irq_init (NULL);
 1006034:	0009883a 	mov	r4,zero
 * devices/filesystems/components in the system; and call the entry point for
 * the users application, i.e. main().
 */

void alt_main (void)
{
 1006038:	dfc00015 	stw	ra,0(sp)
#endif

  /* ALT LOG - please see HAL/sys/alt_log_printf.h for details */
  ALT_LOG_PRINT_BOOT("[alt_main.c] Entering alt_main, calling alt_irq_init.\r\n");
  /* Initialize the interrupt controller. */
  alt_irq_init (NULL);
 100603c:	10060bc0 	call	10060bc <alt_irq_init>
  ALT_LOG_PRINT_BOOT("[alt_main.c] Done OS Init, calling alt_sem_create.\r\n");
  ALT_SEM_CREATE (&alt_fd_list_lock, 1);

  /* Initialize the device drivers/software components. */
  ALT_LOG_PRINT_BOOT("[alt_main.c] Calling alt_sys_init.\r\n");
  alt_sys_init();
 1006040:	10060dc0 	call	10060dc <alt_sys_init>
   */

  ALT_LOG_PRINT_BOOT("[alt_main.c] Calling main.\r\n");

#ifdef ALT_NO_EXIT
  main (alt_argc, alt_argv, alt_envp);
 1006044:	d1a08517 	ldw	r6,-32236(gp)
 1006048:	d1608617 	ldw	r5,-32232(gp)
 100604c:	d1208717 	ldw	r4,-32228(gp)
  close(STDOUT_FILENO);
  exit (result);
#endif

  ALT_LOG_PRINT_BOOT("[alt_main.c] After main - we should not be here?.\r\n");
}
 1006050:	dfc00017 	ldw	ra,0(sp)
 1006054:	dec00104 	addi	sp,sp,4
   */

  ALT_LOG_PRINT_BOOT("[alt_main.c] Calling main.\r\n");

#ifdef ALT_NO_EXIT
  main (alt_argc, alt_argv, alt_envp);
 1006058:	10008f01 	jmpi	10008f0 <main>

0100605c <write>:
#if !defined(ALT_STDOUT_PRESENT) && !defined(ALT_STDERR_PRESENT)
    /* Generate a link time warning, should this function ever be called. */
    ALT_STUB_WARNING(write);
#endif

    switch (file) {
 100605c:	00800044 	movi	r2,1
 1006060:	20800d26 	beq	r4,r2,1006098 <write+0x3c>
 1006064:	00800084 	movi	r2,2
 1006068:	20800b26 	beq	r4,r2,1006098 <write+0x3c>

extern int errno;

static ALT_INLINE int* alt_get_errno(void)
{
  return ((alt_errno) ? alt_errno() : &errno);
 100606c:	d0a00517 	ldw	r2,-32748(gp)
 1006070:	10000d26 	beq	r2,zero,10060a8 <write+0x4c>
 * Provide minimal version that just writes to the stdout/stderr devices
 * when provided.
 */

int ALT_WRITE (int file, const void *ptr, size_t len)
{
 1006074:	deffff04 	addi	sp,sp,-4
 1006078:	dfc00015 	stw	ra,0(sp)
 100607c:	103ee83a 	callr	r2
#ifdef ALT_STDERR_PRESENT
    case 2: /* stderr file descriptor */
        return ALT_DRIVER_WRITE(ALT_STDERR_DEV, ptr, len, 0);
#endif /* ALT_STDERR_PRESENT */
    default:
        ALT_ERRNO = EBADFD;
 1006080:	00c01444 	movi	r3,81
 1006084:	10c00015 	stw	r3,0(r2)
        return -1;
    }
}
 1006088:	00bfffc4 	movi	r2,-1
 100608c:	dfc00017 	ldw	ra,0(sp)
 1006090:	dec00104 	addi	sp,sp,4
 1006094:	f800283a 	ret
    case 1: /* stdout file descriptor */
        return ALT_DRIVER_WRITE(ALT_STDOUT_DEV, ptr, len, 0);
#endif /* ALT_STDOUT_PRESENT */
#ifdef ALT_STDERR_PRESENT
    case 2: /* stderr file descriptor */
        return ALT_DRIVER_WRITE(ALT_STDERR_DEV, ptr, len, 0);
 1006098:	01004034 	movhi	r4,256
 100609c:	2119bc04 	addi	r4,r4,26352
 10060a0:	000f883a 	mov	r7,zero
 10060a4:	10060e01 	jmpi	10060e0 <altera_avalon_jtag_uart_write>
 10060a8:	d0a08404 	addi	r2,gp,-32240
#endif /* ALT_STDERR_PRESENT */
    default:
        ALT_ERRNO = EBADFD;
 10060ac:	00c01444 	movi	r3,81
 10060b0:	10c00015 	stw	r3,0(r2)
        return -1;
    }
}
 10060b4:	00bfffc4 	movi	r2,-1
 10060b8:	f800283a 	ret

010060bc <alt_irq_init>:
 * The "base" parameter is ignored and only
 * present for backwards-compatibility.
 */

void alt_irq_init ( const void* base )
{
 10060bc:	deffff04 	addi	sp,sp,-4
 10060c0:	dfc00015 	stw	ra,0(sp)
    ALTERA_NIOS2_GEN2_IRQ_INIT ( CPU, cpu);
 10060c4:	100611c0 	call	100611c <altera_nios2_gen2_irq_init>
 * alt_irq_cpu_enable_interrupts() enables the CPU to start taking interrupts.
 */
static ALT_INLINE void ALT_ALWAYS_INLINE 
       alt_irq_cpu_enable_interrupts (void)
{
    NIOS2_WRITE_STATUS(NIOS2_STATUS_PIE_MSK
 10060c8:	00800044 	movi	r2,1
 10060cc:	1001703a 	wrctl	status,r2
    alt_irq_cpu_enable_interrupts();
}
 10060d0:	dfc00017 	ldw	ra,0(sp)
 10060d4:	dec00104 	addi	sp,sp,4
 10060d8:	f800283a 	ret

010060dc <alt_sys_init>:
 * Initialize the non-interrupt controller devices.
 * Called after alt_irq_init().
 */

void alt_sys_init( void )
{
 10060dc:	f800283a 	ret

010060e0 <altera_avalon_jtag_uart_write>:
 */

int altera_avalon_jtag_uart_write(altera_avalon_jtag_uart_state* sp, 
  const char * ptr, int count, int flags)
{
  unsigned int base = sp->base;
 10060e0:	21c00017 	ldw	r7,0(r4)
 * one FIFOs worth of data.  But you said you didn't want to use interrupts :-)
 */

int altera_avalon_jtag_uart_write(altera_avalon_jtag_uart_state* sp, 
  const char * ptr, int count, int flags)
{
 10060e4:	3005883a 	mov	r2,r6
  unsigned int base = sp->base;

  const char * end = ptr + count;
 10060e8:	298d883a 	add	r6,r5,r6
 10060ec:	39000104 	addi	r4,r7,4

  while (ptr < end)
 10060f0:	2980072e 	bgeu	r5,r6,1006110 <altera_avalon_jtag_uart_write+0x30>
    if ((IORD_ALTERA_AVALON_JTAG_UART_CONTROL(base) & ALTERA_AVALON_JTAG_UART_CONTROL_WSPACE_MSK) != 0)
 10060f4:	20c00037 	ldwio	r3,0(r4)
 10060f8:	18ffffec 	andhi	r3,r3,65535
 10060fc:	183ffd26 	beq	r3,zero,10060f4 <altera_avalon_jtag_uart_write+0x14>
      IOWR_ALTERA_AVALON_JTAG_UART_DATA(base, *ptr++);
 1006100:	28c00007 	ldb	r3,0(r5)
 1006104:	38c00035 	stwio	r3,0(r7)
 1006108:	29400044 	addi	r5,r5,1
 100610c:	003ff806 	br	10060f0 <altera_avalon_jtag_uart_write+0x10>

  return count;
}
 1006110:	f800283a 	ret

01006114 <alt_dcache_flush_all>:
/*
 * alt_dcache_flush_all() is called to flush the entire data cache.
 */

void alt_dcache_flush_all (void)
{
 1006114:	f800283a 	ret

01006118 <alt_icache_flush_all>:
/*
 * alt_icache_flush_all() is called to flush the entire instruction cache.
 */

void alt_icache_flush_all (void)
{
 1006118:	f800283a 	ret

0100611c <altera_nios2_gen2_irq_init>:
 * To initialize the internal interrupt controller, just clear the IENABLE
 * register so that all possible IRQs are disabled.
 */
void altera_nios2_gen2_irq_init(void) 
{
    NIOS2_WRITE_IENABLE(0);
 100611c:	000170fa 	wrctl	ienable,zero
 1006120:	f800283a 	ret
